ARM GAS  C:\Users\TIMCHE~1\AppData\Local\Temp\ccOLAcjB.s 			page 1


   1              		.cpu cortex-m0
   2              		.fpu softvfp
   3              		.eabi_attribute 20, 1
   4              		.eabi_attribute 21, 1
   5              		.eabi_attribute 23, 3
   6              		.eabi_attribute 24, 1
   7              		.eabi_attribute 25, 1
   8              		.eabi_attribute 26, 1
   9              		.eabi_attribute 30, 4
  10              		.eabi_attribute 34, 0
  11              		.eabi_attribute 18, 4
  12              		.code	16
  13              		.file	"I2C_Slave.c"
  14              		.text
  15              	.Ltext0:
  16              		.cfi_sections	.debug_frame
  17              		.section	.text.I2C_Slave_Init,"ax",%progbits
  18              		.align	1
  19              		.global	I2C_Slave_Init
  20              		.code	16
  21              		.thumb_func
  22              		.type	I2C_Slave_Init, %function
  23              	I2C_Slave_Init:
  24              	.LFB0:
  25              		.file 1 "Generated_Source\\PSoC4\\I2C_Slave.c"
   1:Generated_Source\PSoC4/I2C_Slave.c **** /***************************************************************************//**
   2:Generated_Source\PSoC4/I2C_Slave.c **** * \file I2C_Slave.c
   3:Generated_Source\PSoC4/I2C_Slave.c **** * \version 3.20
   4:Generated_Source\PSoC4/I2C_Slave.c **** *
   5:Generated_Source\PSoC4/I2C_Slave.c **** * \brief
   6:Generated_Source\PSoC4/I2C_Slave.c **** *  This file provides the source code to the API for the SCB Component.
   7:Generated_Source\PSoC4/I2C_Slave.c **** *
   8:Generated_Source\PSoC4/I2C_Slave.c **** * Note:
   9:Generated_Source\PSoC4/I2C_Slave.c **** *
  10:Generated_Source\PSoC4/I2C_Slave.c **** *******************************************************************************
  11:Generated_Source\PSoC4/I2C_Slave.c **** * \copyright
  12:Generated_Source\PSoC4/I2C_Slave.c **** * Copyright 2013-2016, Cypress Semiconductor Corporation.  All rights reserved.
  13:Generated_Source\PSoC4/I2C_Slave.c **** * You may use this file only in accordance with the license, terms, conditions,
  14:Generated_Source\PSoC4/I2C_Slave.c **** * disclaimers, and limitations in the end user license agreement accompanying
  15:Generated_Source\PSoC4/I2C_Slave.c **** * the software package with which this file was provided.
  16:Generated_Source\PSoC4/I2C_Slave.c **** *******************************************************************************/
  17:Generated_Source\PSoC4/I2C_Slave.c **** 
  18:Generated_Source\PSoC4/I2C_Slave.c **** #include "I2C_Slave_PVT.h"
  19:Generated_Source\PSoC4/I2C_Slave.c **** 
  20:Generated_Source\PSoC4/I2C_Slave.c **** #if (I2C_Slave_SCB_MODE_I2C_INC)
  21:Generated_Source\PSoC4/I2C_Slave.c ****     #include "I2C_Slave_I2C_PVT.h"
  22:Generated_Source\PSoC4/I2C_Slave.c **** #endif /* (I2C_Slave_SCB_MODE_I2C_INC) */
  23:Generated_Source\PSoC4/I2C_Slave.c **** 
  24:Generated_Source\PSoC4/I2C_Slave.c **** #if (I2C_Slave_SCB_MODE_EZI2C_INC)
  25:Generated_Source\PSoC4/I2C_Slave.c ****     #include "I2C_Slave_EZI2C_PVT.h"
  26:Generated_Source\PSoC4/I2C_Slave.c **** #endif /* (I2C_Slave_SCB_MODE_EZI2C_INC) */
  27:Generated_Source\PSoC4/I2C_Slave.c **** 
  28:Generated_Source\PSoC4/I2C_Slave.c **** #if (I2C_Slave_SCB_MODE_SPI_INC || I2C_Slave_SCB_MODE_UART_INC)
  29:Generated_Source\PSoC4/I2C_Slave.c ****     #include "I2C_Slave_SPI_UART_PVT.h"
  30:Generated_Source\PSoC4/I2C_Slave.c **** #endif /* (I2C_Slave_SCB_MODE_SPI_INC || I2C_Slave_SCB_MODE_UART_INC) */
  31:Generated_Source\PSoC4/I2C_Slave.c **** 
  32:Generated_Source\PSoC4/I2C_Slave.c **** 
ARM GAS  C:\Users\TIMCHE~1\AppData\Local\Temp\ccOLAcjB.s 			page 2


  33:Generated_Source\PSoC4/I2C_Slave.c **** /***************************************
  34:Generated_Source\PSoC4/I2C_Slave.c **** *    Run Time Configuration Vars
  35:Generated_Source\PSoC4/I2C_Slave.c **** ***************************************/
  36:Generated_Source\PSoC4/I2C_Slave.c **** 
  37:Generated_Source\PSoC4/I2C_Slave.c **** /* Stores internal component configuration for Unconfigured mode */
  38:Generated_Source\PSoC4/I2C_Slave.c **** #if (I2C_Slave_SCB_MODE_UNCONFIG_CONST_CFG)
  39:Generated_Source\PSoC4/I2C_Slave.c ****     /* Common configuration variables */
  40:Generated_Source\PSoC4/I2C_Slave.c ****     uint8 I2C_Slave_scbMode = I2C_Slave_SCB_MODE_UNCONFIG;
  41:Generated_Source\PSoC4/I2C_Slave.c ****     uint8 I2C_Slave_scbEnableWake;
  42:Generated_Source\PSoC4/I2C_Slave.c ****     uint8 I2C_Slave_scbEnableIntr;
  43:Generated_Source\PSoC4/I2C_Slave.c **** 
  44:Generated_Source\PSoC4/I2C_Slave.c ****     /* I2C configuration variables */
  45:Generated_Source\PSoC4/I2C_Slave.c ****     uint8 I2C_Slave_mode;
  46:Generated_Source\PSoC4/I2C_Slave.c ****     uint8 I2C_Slave_acceptAddr;
  47:Generated_Source\PSoC4/I2C_Slave.c **** 
  48:Generated_Source\PSoC4/I2C_Slave.c ****     /* SPI/UART configuration variables */
  49:Generated_Source\PSoC4/I2C_Slave.c ****     volatile uint8 * I2C_Slave_rxBuffer;
  50:Generated_Source\PSoC4/I2C_Slave.c ****     uint8  I2C_Slave_rxDataBits;
  51:Generated_Source\PSoC4/I2C_Slave.c ****     uint32 I2C_Slave_rxBufferSize;
  52:Generated_Source\PSoC4/I2C_Slave.c **** 
  53:Generated_Source\PSoC4/I2C_Slave.c ****     volatile uint8 * I2C_Slave_txBuffer;
  54:Generated_Source\PSoC4/I2C_Slave.c ****     uint8  I2C_Slave_txDataBits;
  55:Generated_Source\PSoC4/I2C_Slave.c ****     uint32 I2C_Slave_txBufferSize;
  56:Generated_Source\PSoC4/I2C_Slave.c **** 
  57:Generated_Source\PSoC4/I2C_Slave.c ****     /* EZI2C configuration variables */
  58:Generated_Source\PSoC4/I2C_Slave.c ****     uint8 I2C_Slave_numberOfAddr;
  59:Generated_Source\PSoC4/I2C_Slave.c ****     uint8 I2C_Slave_subAddrSize;
  60:Generated_Source\PSoC4/I2C_Slave.c **** #endif /* (I2C_Slave_SCB_MODE_UNCONFIG_CONST_CFG) */
  61:Generated_Source\PSoC4/I2C_Slave.c **** 
  62:Generated_Source\PSoC4/I2C_Slave.c **** 
  63:Generated_Source\PSoC4/I2C_Slave.c **** /***************************************
  64:Generated_Source\PSoC4/I2C_Slave.c **** *     Common SCB Vars
  65:Generated_Source\PSoC4/I2C_Slave.c **** ***************************************/
  66:Generated_Source\PSoC4/I2C_Slave.c **** /**
  67:Generated_Source\PSoC4/I2C_Slave.c **** * \addtogroup group_general
  68:Generated_Source\PSoC4/I2C_Slave.c **** * \{
  69:Generated_Source\PSoC4/I2C_Slave.c **** */
  70:Generated_Source\PSoC4/I2C_Slave.c **** 
  71:Generated_Source\PSoC4/I2C_Slave.c **** /** I2C_Slave_initVar indicates whether the I2C_Slave 
  72:Generated_Source\PSoC4/I2C_Slave.c **** *  component has been initialized. The variable is initialized to 0 
  73:Generated_Source\PSoC4/I2C_Slave.c **** *  and set to 1 the first time SCB_Start() is called. This allows 
  74:Generated_Source\PSoC4/I2C_Slave.c **** *  the component to restart without reinitialization after the first 
  75:Generated_Source\PSoC4/I2C_Slave.c **** *  call to the I2C_Slave_Start() routine.
  76:Generated_Source\PSoC4/I2C_Slave.c **** *
  77:Generated_Source\PSoC4/I2C_Slave.c **** *  If re-initialization of the component is required, then the 
  78:Generated_Source\PSoC4/I2C_Slave.c **** *  I2C_Slave_Init() function can be called before the 
  79:Generated_Source\PSoC4/I2C_Slave.c **** *  I2C_Slave_Start() or I2C_Slave_Enable() function.
  80:Generated_Source\PSoC4/I2C_Slave.c **** */
  81:Generated_Source\PSoC4/I2C_Slave.c **** uint8 I2C_Slave_initVar = 0u;
  82:Generated_Source\PSoC4/I2C_Slave.c **** 
  83:Generated_Source\PSoC4/I2C_Slave.c **** 
  84:Generated_Source\PSoC4/I2C_Slave.c **** #if (! (I2C_Slave_SCB_MODE_I2C_CONST_CFG || \
  85:Generated_Source\PSoC4/I2C_Slave.c ****         I2C_Slave_SCB_MODE_EZI2C_CONST_CFG))
  86:Generated_Source\PSoC4/I2C_Slave.c ****     /** This global variable stores TX interrupt sources after 
  87:Generated_Source\PSoC4/I2C_Slave.c ****     * I2C_Slave_Stop() is called. Only these TX interrupt sources 
  88:Generated_Source\PSoC4/I2C_Slave.c ****     * will be restored on a subsequent I2C_Slave_Enable() call.
  89:Generated_Source\PSoC4/I2C_Slave.c ****     */
ARM GAS  C:\Users\TIMCHE~1\AppData\Local\Temp\ccOLAcjB.s 			page 3


  90:Generated_Source\PSoC4/I2C_Slave.c ****     uint16 I2C_Slave_IntrTxMask = 0u;
  91:Generated_Source\PSoC4/I2C_Slave.c **** #endif /* (! (I2C_Slave_SCB_MODE_I2C_CONST_CFG || \
  92:Generated_Source\PSoC4/I2C_Slave.c ****               I2C_Slave_SCB_MODE_EZI2C_CONST_CFG)) */
  93:Generated_Source\PSoC4/I2C_Slave.c **** /** \} globals */
  94:Generated_Source\PSoC4/I2C_Slave.c **** 
  95:Generated_Source\PSoC4/I2C_Slave.c **** #if (I2C_Slave_SCB_IRQ_INTERNAL)
  96:Generated_Source\PSoC4/I2C_Slave.c **** #if !defined (CY_REMOVE_I2C_Slave_CUSTOM_INTR_HANDLER)
  97:Generated_Source\PSoC4/I2C_Slave.c ****     void (*I2C_Slave_customIntrHandler)(void) = NULL;
  98:Generated_Source\PSoC4/I2C_Slave.c **** #endif /* !defined (CY_REMOVE_I2C_Slave_CUSTOM_INTR_HANDLER) */
  99:Generated_Source\PSoC4/I2C_Slave.c **** #endif /* (I2C_Slave_SCB_IRQ_INTERNAL) */
 100:Generated_Source\PSoC4/I2C_Slave.c **** 
 101:Generated_Source\PSoC4/I2C_Slave.c **** 
 102:Generated_Source\PSoC4/I2C_Slave.c **** /***************************************
 103:Generated_Source\PSoC4/I2C_Slave.c **** *    Private Function Prototypes
 104:Generated_Source\PSoC4/I2C_Slave.c **** ***************************************/
 105:Generated_Source\PSoC4/I2C_Slave.c **** 
 106:Generated_Source\PSoC4/I2C_Slave.c **** static void I2C_Slave_ScbEnableIntr(void);
 107:Generated_Source\PSoC4/I2C_Slave.c **** static void I2C_Slave_ScbModeStop(void);
 108:Generated_Source\PSoC4/I2C_Slave.c **** static void I2C_Slave_ScbModePostEnable(void);
 109:Generated_Source\PSoC4/I2C_Slave.c **** 
 110:Generated_Source\PSoC4/I2C_Slave.c **** 
 111:Generated_Source\PSoC4/I2C_Slave.c **** /*******************************************************************************
 112:Generated_Source\PSoC4/I2C_Slave.c **** * Function Name: I2C_Slave_Init
 113:Generated_Source\PSoC4/I2C_Slave.c **** ****************************************************************************//**
 114:Generated_Source\PSoC4/I2C_Slave.c **** *
 115:Generated_Source\PSoC4/I2C_Slave.c **** *  Initializes the I2C_Slave component to operate in one of the selected
 116:Generated_Source\PSoC4/I2C_Slave.c **** *  configurations: I2C, SPI, UART or EZI2C.
 117:Generated_Source\PSoC4/I2C_Slave.c **** *  When the configuration is set to "Unconfigured SCB", this function does
 118:Generated_Source\PSoC4/I2C_Slave.c **** *  not do any initialization. Use mode-specific initialization APIs instead:
 119:Generated_Source\PSoC4/I2C_Slave.c **** *  I2C_Slave_I2CInit, I2C_Slave_SpiInit, 
 120:Generated_Source\PSoC4/I2C_Slave.c **** *  I2C_Slave_UartInit or I2C_Slave_EzI2CInit.
 121:Generated_Source\PSoC4/I2C_Slave.c **** *
 122:Generated_Source\PSoC4/I2C_Slave.c **** *******************************************************************************/
 123:Generated_Source\PSoC4/I2C_Slave.c **** void I2C_Slave_Init(void)
 124:Generated_Source\PSoC4/I2C_Slave.c **** {
  26              		.loc 1 124 0
  27              		.cfi_startproc
  28 0000 08B5     		push	{r3, lr}
  29              		.cfi_def_cfa_offset 8
  30              		.cfi_offset 3, -8
  31              		.cfi_offset 14, -4
 125:Generated_Source\PSoC4/I2C_Slave.c **** #if (I2C_Slave_SCB_MODE_UNCONFIG_CONST_CFG)
 126:Generated_Source\PSoC4/I2C_Slave.c ****     if (I2C_Slave_SCB_MODE_UNCONFIG_RUNTM_CFG)
 127:Generated_Source\PSoC4/I2C_Slave.c ****     {
 128:Generated_Source\PSoC4/I2C_Slave.c ****         I2C_Slave_initVar = 0u;
 129:Generated_Source\PSoC4/I2C_Slave.c ****     }
 130:Generated_Source\PSoC4/I2C_Slave.c ****     else
 131:Generated_Source\PSoC4/I2C_Slave.c ****     {
 132:Generated_Source\PSoC4/I2C_Slave.c ****         /* Initialization was done before this function call */
 133:Generated_Source\PSoC4/I2C_Slave.c ****     }
 134:Generated_Source\PSoC4/I2C_Slave.c **** 
 135:Generated_Source\PSoC4/I2C_Slave.c **** #elif (I2C_Slave_SCB_MODE_I2C_CONST_CFG)
 136:Generated_Source\PSoC4/I2C_Slave.c ****     I2C_Slave_I2CInit();
  32              		.loc 1 136 0
  33 0002 FFF7FEFF 		bl	I2C_Slave_I2CInit
  34              	.LVL0:
 137:Generated_Source\PSoC4/I2C_Slave.c **** 
ARM GAS  C:\Users\TIMCHE~1\AppData\Local\Temp\ccOLAcjB.s 			page 4


 138:Generated_Source\PSoC4/I2C_Slave.c **** #elif (I2C_Slave_SCB_MODE_SPI_CONST_CFG)
 139:Generated_Source\PSoC4/I2C_Slave.c ****     I2C_Slave_SpiInit();
 140:Generated_Source\PSoC4/I2C_Slave.c **** 
 141:Generated_Source\PSoC4/I2C_Slave.c **** #elif (I2C_Slave_SCB_MODE_UART_CONST_CFG)
 142:Generated_Source\PSoC4/I2C_Slave.c ****     I2C_Slave_UartInit();
 143:Generated_Source\PSoC4/I2C_Slave.c **** 
 144:Generated_Source\PSoC4/I2C_Slave.c **** #elif (I2C_Slave_SCB_MODE_EZI2C_CONST_CFG)
 145:Generated_Source\PSoC4/I2C_Slave.c ****     I2C_Slave_EzI2CInit();
 146:Generated_Source\PSoC4/I2C_Slave.c **** 
 147:Generated_Source\PSoC4/I2C_Slave.c **** #endif /* (I2C_Slave_SCB_MODE_UNCONFIG_CONST_CFG) */
 148:Generated_Source\PSoC4/I2C_Slave.c **** }
  35              		.loc 1 148 0
  36              		@ sp needed
  37 0006 08BD     		pop	{r3, pc}
  38              		.cfi_endproc
  39              	.LFE0:
  40              		.size	I2C_Slave_Init, .-I2C_Slave_Init
  41              		.section	.text.I2C_Slave_Enable,"ax",%progbits
  42              		.align	1
  43              		.global	I2C_Slave_Enable
  44              		.code	16
  45              		.thumb_func
  46              		.type	I2C_Slave_Enable, %function
  47              	I2C_Slave_Enable:
  48              	.LFB1:
 149:Generated_Source\PSoC4/I2C_Slave.c **** 
 150:Generated_Source\PSoC4/I2C_Slave.c **** 
 151:Generated_Source\PSoC4/I2C_Slave.c **** /*******************************************************************************
 152:Generated_Source\PSoC4/I2C_Slave.c **** * Function Name: I2C_Slave_Enable
 153:Generated_Source\PSoC4/I2C_Slave.c **** ****************************************************************************//**
 154:Generated_Source\PSoC4/I2C_Slave.c **** *
 155:Generated_Source\PSoC4/I2C_Slave.c **** *  Enables I2C_Slave component operation: activates the hardware and 
 156:Generated_Source\PSoC4/I2C_Slave.c **** *  internal interrupt. It also restores TX interrupt sources disabled after the 
 157:Generated_Source\PSoC4/I2C_Slave.c **** *  I2C_Slave_Stop() function was called (note that level-triggered TX 
 158:Generated_Source\PSoC4/I2C_Slave.c **** *  interrupt sources remain disabled to not cause code lock-up).
 159:Generated_Source\PSoC4/I2C_Slave.c **** *  For I2C and EZI2C modes the interrupt is internal and mandatory for 
 160:Generated_Source\PSoC4/I2C_Slave.c **** *  operation. For SPI and UART modes the interrupt can be configured as none, 
 161:Generated_Source\PSoC4/I2C_Slave.c **** *  internal or external.
 162:Generated_Source\PSoC4/I2C_Slave.c **** *  The I2C_Slave configuration should be not changed when the component
 163:Generated_Source\PSoC4/I2C_Slave.c **** *  is enabled. Any configuration changes should be made after disabling the 
 164:Generated_Source\PSoC4/I2C_Slave.c **** *  component.
 165:Generated_Source\PSoC4/I2C_Slave.c **** *  When configuration is set to “Unconfigured I2C_Slave”, the component 
 166:Generated_Source\PSoC4/I2C_Slave.c **** *  must first be initialized to operate in one of the following configurations: 
 167:Generated_Source\PSoC4/I2C_Slave.c **** *  I2C, SPI, UART or EZ I2C, using the mode-specific initialization API. 
 168:Generated_Source\PSoC4/I2C_Slave.c **** *  Otherwise this function does not enable the component.
 169:Generated_Source\PSoC4/I2C_Slave.c **** *
 170:Generated_Source\PSoC4/I2C_Slave.c **** *******************************************************************************/
 171:Generated_Source\PSoC4/I2C_Slave.c **** void I2C_Slave_Enable(void)
 172:Generated_Source\PSoC4/I2C_Slave.c **** {
  49              		.loc 1 172 0
  50              		.cfi_startproc
 173:Generated_Source\PSoC4/I2C_Slave.c **** #if (I2C_Slave_SCB_MODE_UNCONFIG_CONST_CFG)
 174:Generated_Source\PSoC4/I2C_Slave.c ****     /* Enable SCB block, only if it is already configured */
 175:Generated_Source\PSoC4/I2C_Slave.c ****     if (!I2C_Slave_SCB_MODE_UNCONFIG_RUNTM_CFG)
 176:Generated_Source\PSoC4/I2C_Slave.c ****     {
 177:Generated_Source\PSoC4/I2C_Slave.c ****         I2C_Slave_CTRL_REG |= I2C_Slave_CTRL_ENABLED;
 178:Generated_Source\PSoC4/I2C_Slave.c **** 
ARM GAS  C:\Users\TIMCHE~1\AppData\Local\Temp\ccOLAcjB.s 			page 5


 179:Generated_Source\PSoC4/I2C_Slave.c ****         I2C_Slave_ScbEnableIntr();
 180:Generated_Source\PSoC4/I2C_Slave.c **** 
 181:Generated_Source\PSoC4/I2C_Slave.c ****         /* Call PostEnable function specific to current operation mode */
 182:Generated_Source\PSoC4/I2C_Slave.c ****         I2C_Slave_ScbModePostEnable();
 183:Generated_Source\PSoC4/I2C_Slave.c ****     }
 184:Generated_Source\PSoC4/I2C_Slave.c **** #else
 185:Generated_Source\PSoC4/I2C_Slave.c ****     I2C_Slave_CTRL_REG |= I2C_Slave_CTRL_ENABLED;
  51              		.loc 1 185 0
  52 0000 8021     		mov	r1, #128
  53 0002 054A     		ldr	r2, .L3
 172:Generated_Source\PSoC4/I2C_Slave.c **** #if (I2C_Slave_SCB_MODE_UNCONFIG_CONST_CFG)
  54              		.loc 1 172 0
  55 0004 08B5     		push	{r3, lr}
  56              		.cfi_def_cfa_offset 8
  57              		.cfi_offset 3, -8
  58              		.cfi_offset 14, -4
  59              		.loc 1 185 0
  60 0006 1368     		ldr	r3, [r2]
  61 0008 0906     		lsl	r1, r1, #24
  62 000a 0B43     		orr	r3, r1
  63 000c 1360     		str	r3, [r2]
  64              	.LBB10:
  65              	.LBB11:
 186:Generated_Source\PSoC4/I2C_Slave.c **** 
 187:Generated_Source\PSoC4/I2C_Slave.c ****     I2C_Slave_ScbEnableIntr();
 188:Generated_Source\PSoC4/I2C_Slave.c **** 
 189:Generated_Source\PSoC4/I2C_Slave.c ****     /* Call PostEnable function specific to current operation mode */
 190:Generated_Source\PSoC4/I2C_Slave.c ****     I2C_Slave_ScbModePostEnable();
 191:Generated_Source\PSoC4/I2C_Slave.c **** #endif /* (I2C_Slave_SCB_MODE_UNCONFIG_CONST_CFG) */
 192:Generated_Source\PSoC4/I2C_Slave.c **** }
 193:Generated_Source\PSoC4/I2C_Slave.c **** 
 194:Generated_Source\PSoC4/I2C_Slave.c **** 
 195:Generated_Source\PSoC4/I2C_Slave.c **** /*******************************************************************************
 196:Generated_Source\PSoC4/I2C_Slave.c **** * Function Name: I2C_Slave_Start
 197:Generated_Source\PSoC4/I2C_Slave.c **** ****************************************************************************//**
 198:Generated_Source\PSoC4/I2C_Slave.c **** *
 199:Generated_Source\PSoC4/I2C_Slave.c **** *  Invokes I2C_Slave_Init() and I2C_Slave_Enable().
 200:Generated_Source\PSoC4/I2C_Slave.c **** *  After this function call, the component is enabled and ready for operation.
 201:Generated_Source\PSoC4/I2C_Slave.c **** *  When configuration is set to "Unconfigured SCB", the component must first be
 202:Generated_Source\PSoC4/I2C_Slave.c **** *  initialized to operate in one of the following configurations: I2C, SPI, UART
 203:Generated_Source\PSoC4/I2C_Slave.c **** *  or EZI2C. Otherwise this function does not enable the component.
 204:Generated_Source\PSoC4/I2C_Slave.c **** *
 205:Generated_Source\PSoC4/I2C_Slave.c **** * \globalvars
 206:Generated_Source\PSoC4/I2C_Slave.c **** *  I2C_Slave_initVar - used to check initial configuration, modified
 207:Generated_Source\PSoC4/I2C_Slave.c **** *  on first function call.
 208:Generated_Source\PSoC4/I2C_Slave.c **** *
 209:Generated_Source\PSoC4/I2C_Slave.c **** *******************************************************************************/
 210:Generated_Source\PSoC4/I2C_Slave.c **** void I2C_Slave_Start(void)
 211:Generated_Source\PSoC4/I2C_Slave.c **** {
 212:Generated_Source\PSoC4/I2C_Slave.c ****     if (0u == I2C_Slave_initVar)
 213:Generated_Source\PSoC4/I2C_Slave.c ****     {
 214:Generated_Source\PSoC4/I2C_Slave.c ****         I2C_Slave_Init();
 215:Generated_Source\PSoC4/I2C_Slave.c ****         I2C_Slave_initVar = 1u; /* Component was initialized */
 216:Generated_Source\PSoC4/I2C_Slave.c ****     }
 217:Generated_Source\PSoC4/I2C_Slave.c **** 
 218:Generated_Source\PSoC4/I2C_Slave.c ****     I2C_Slave_Enable();
 219:Generated_Source\PSoC4/I2C_Slave.c **** }
ARM GAS  C:\Users\TIMCHE~1\AppData\Local\Temp\ccOLAcjB.s 			page 6


 220:Generated_Source\PSoC4/I2C_Slave.c **** 
 221:Generated_Source\PSoC4/I2C_Slave.c **** 
 222:Generated_Source\PSoC4/I2C_Slave.c **** /*******************************************************************************
 223:Generated_Source\PSoC4/I2C_Slave.c **** * Function Name: I2C_Slave_Stop
 224:Generated_Source\PSoC4/I2C_Slave.c **** ****************************************************************************//**
 225:Generated_Source\PSoC4/I2C_Slave.c **** *
 226:Generated_Source\PSoC4/I2C_Slave.c **** *  Disables the I2C_Slave component: disable the hardware and internal 
 227:Generated_Source\PSoC4/I2C_Slave.c **** *  interrupt. It also disables all TX interrupt sources so as not to cause an 
 228:Generated_Source\PSoC4/I2C_Slave.c **** *  unexpected interrupt trigger because after the component is enabled, the 
 229:Generated_Source\PSoC4/I2C_Slave.c **** *  TX FIFO is empty.
 230:Generated_Source\PSoC4/I2C_Slave.c **** *  Refer to the function I2C_Slave_Enable() for the interrupt 
 231:Generated_Source\PSoC4/I2C_Slave.c **** *  configuration details.
 232:Generated_Source\PSoC4/I2C_Slave.c **** *  This function disables the SCB component without checking to see if 
 233:Generated_Source\PSoC4/I2C_Slave.c **** *  communication is in progress. Before calling this function it may be 
 234:Generated_Source\PSoC4/I2C_Slave.c **** *  necessary to check the status of communication to make sure communication 
 235:Generated_Source\PSoC4/I2C_Slave.c **** *  is complete. If this is not done then communication could be stopped mid 
 236:Generated_Source\PSoC4/I2C_Slave.c **** *  byte and corrupted data could result.
 237:Generated_Source\PSoC4/I2C_Slave.c **** *
 238:Generated_Source\PSoC4/I2C_Slave.c **** *******************************************************************************/
 239:Generated_Source\PSoC4/I2C_Slave.c **** void I2C_Slave_Stop(void)
 240:Generated_Source\PSoC4/I2C_Slave.c **** {
 241:Generated_Source\PSoC4/I2C_Slave.c **** #if (I2C_Slave_SCB_IRQ_INTERNAL)
 242:Generated_Source\PSoC4/I2C_Slave.c ****     I2C_Slave_DisableInt();
 243:Generated_Source\PSoC4/I2C_Slave.c **** #endif /* (I2C_Slave_SCB_IRQ_INTERNAL) */
 244:Generated_Source\PSoC4/I2C_Slave.c **** 
 245:Generated_Source\PSoC4/I2C_Slave.c ****     /* Call Stop function specific to current operation mode */
 246:Generated_Source\PSoC4/I2C_Slave.c ****     I2C_Slave_ScbModeStop();
 247:Generated_Source\PSoC4/I2C_Slave.c **** 
 248:Generated_Source\PSoC4/I2C_Slave.c ****     /* Disable SCB IP */
 249:Generated_Source\PSoC4/I2C_Slave.c ****     I2C_Slave_CTRL_REG &= (uint32) ~I2C_Slave_CTRL_ENABLED;
 250:Generated_Source\PSoC4/I2C_Slave.c **** 
 251:Generated_Source\PSoC4/I2C_Slave.c ****     /* Disable all TX interrupt sources so as not to cause an unexpected
 252:Generated_Source\PSoC4/I2C_Slave.c ****     * interrupt trigger after the component will be enabled because the 
 253:Generated_Source\PSoC4/I2C_Slave.c ****     * TX FIFO is empty.
 254:Generated_Source\PSoC4/I2C_Slave.c ****     * For SCB IP v0, it is critical as it does not mask-out interrupt
 255:Generated_Source\PSoC4/I2C_Slave.c ****     * sources when it is disabled. This can cause a code lock-up in the
 256:Generated_Source\PSoC4/I2C_Slave.c ****     * interrupt handler because TX FIFO cannot be loaded after the block
 257:Generated_Source\PSoC4/I2C_Slave.c ****     * is disabled.
 258:Generated_Source\PSoC4/I2C_Slave.c ****     */
 259:Generated_Source\PSoC4/I2C_Slave.c ****     I2C_Slave_SetTxInterruptMode(I2C_Slave_NO_INTR_SOURCES);
 260:Generated_Source\PSoC4/I2C_Slave.c **** 
 261:Generated_Source\PSoC4/I2C_Slave.c **** #if (I2C_Slave_SCB_IRQ_INTERNAL)
 262:Generated_Source\PSoC4/I2C_Slave.c ****     I2C_Slave_ClearPendingInt();
 263:Generated_Source\PSoC4/I2C_Slave.c **** #endif /* (I2C_Slave_SCB_IRQ_INTERNAL) */
 264:Generated_Source\PSoC4/I2C_Slave.c **** }
 265:Generated_Source\PSoC4/I2C_Slave.c **** 
 266:Generated_Source\PSoC4/I2C_Slave.c **** 
 267:Generated_Source\PSoC4/I2C_Slave.c **** /*******************************************************************************
 268:Generated_Source\PSoC4/I2C_Slave.c **** * Function Name: I2C_Slave_SetRxFifoLevel
 269:Generated_Source\PSoC4/I2C_Slave.c **** ****************************************************************************//**
 270:Generated_Source\PSoC4/I2C_Slave.c **** *
 271:Generated_Source\PSoC4/I2C_Slave.c **** *  Sets level in the RX FIFO to generate a RX level interrupt.
 272:Generated_Source\PSoC4/I2C_Slave.c **** *  When the RX FIFO has more entries than the RX FIFO level an RX level
 273:Generated_Source\PSoC4/I2C_Slave.c **** *  interrupt request is generated.
 274:Generated_Source\PSoC4/I2C_Slave.c **** *
 275:Generated_Source\PSoC4/I2C_Slave.c **** *  \param level: Level in the RX FIFO to generate RX level interrupt.
 276:Generated_Source\PSoC4/I2C_Slave.c **** *   The range of valid level values is between 0 and RX FIFO depth - 1.
ARM GAS  C:\Users\TIMCHE~1\AppData\Local\Temp\ccOLAcjB.s 			page 7


 277:Generated_Source\PSoC4/I2C_Slave.c **** *
 278:Generated_Source\PSoC4/I2C_Slave.c **** *******************************************************************************/
 279:Generated_Source\PSoC4/I2C_Slave.c **** void I2C_Slave_SetRxFifoLevel(uint32 level)
 280:Generated_Source\PSoC4/I2C_Slave.c **** {
 281:Generated_Source\PSoC4/I2C_Slave.c ****     uint32 rxFifoCtrl;
 282:Generated_Source\PSoC4/I2C_Slave.c **** 
 283:Generated_Source\PSoC4/I2C_Slave.c ****     rxFifoCtrl = I2C_Slave_RX_FIFO_CTRL_REG;
 284:Generated_Source\PSoC4/I2C_Slave.c **** 
 285:Generated_Source\PSoC4/I2C_Slave.c ****     rxFifoCtrl &= ((uint32) ~I2C_Slave_RX_FIFO_CTRL_TRIGGER_LEVEL_MASK); /* Clear level mask bits *
 286:Generated_Source\PSoC4/I2C_Slave.c ****     rxFifoCtrl |= ((uint32) (I2C_Slave_RX_FIFO_CTRL_TRIGGER_LEVEL_MASK & level));
 287:Generated_Source\PSoC4/I2C_Slave.c **** 
 288:Generated_Source\PSoC4/I2C_Slave.c ****     I2C_Slave_RX_FIFO_CTRL_REG = rxFifoCtrl;
 289:Generated_Source\PSoC4/I2C_Slave.c **** }
 290:Generated_Source\PSoC4/I2C_Slave.c **** 
 291:Generated_Source\PSoC4/I2C_Slave.c **** 
 292:Generated_Source\PSoC4/I2C_Slave.c **** /*******************************************************************************
 293:Generated_Source\PSoC4/I2C_Slave.c **** * Function Name: I2C_Slave_SetTxFifoLevel
 294:Generated_Source\PSoC4/I2C_Slave.c **** ****************************************************************************//**
 295:Generated_Source\PSoC4/I2C_Slave.c **** *
 296:Generated_Source\PSoC4/I2C_Slave.c **** *  Sets level in the TX FIFO to generate a TX level interrupt.
 297:Generated_Source\PSoC4/I2C_Slave.c **** *  When the TX FIFO has less entries than the TX FIFO level an TX level
 298:Generated_Source\PSoC4/I2C_Slave.c **** *  interrupt request is generated.
 299:Generated_Source\PSoC4/I2C_Slave.c **** *
 300:Generated_Source\PSoC4/I2C_Slave.c **** *  \param level: Level in the TX FIFO to generate TX level interrupt.
 301:Generated_Source\PSoC4/I2C_Slave.c **** *   The range of valid level values is between 0 and TX FIFO depth - 1.
 302:Generated_Source\PSoC4/I2C_Slave.c **** *
 303:Generated_Source\PSoC4/I2C_Slave.c **** *******************************************************************************/
 304:Generated_Source\PSoC4/I2C_Slave.c **** void I2C_Slave_SetTxFifoLevel(uint32 level)
 305:Generated_Source\PSoC4/I2C_Slave.c **** {
 306:Generated_Source\PSoC4/I2C_Slave.c ****     uint32 txFifoCtrl;
 307:Generated_Source\PSoC4/I2C_Slave.c **** 
 308:Generated_Source\PSoC4/I2C_Slave.c ****     txFifoCtrl = I2C_Slave_TX_FIFO_CTRL_REG;
 309:Generated_Source\PSoC4/I2C_Slave.c **** 
 310:Generated_Source\PSoC4/I2C_Slave.c ****     txFifoCtrl &= ((uint32) ~I2C_Slave_TX_FIFO_CTRL_TRIGGER_LEVEL_MASK); /* Clear level mask bits *
 311:Generated_Source\PSoC4/I2C_Slave.c ****     txFifoCtrl |= ((uint32) (I2C_Slave_TX_FIFO_CTRL_TRIGGER_LEVEL_MASK & level));
 312:Generated_Source\PSoC4/I2C_Slave.c **** 
 313:Generated_Source\PSoC4/I2C_Slave.c ****     I2C_Slave_TX_FIFO_CTRL_REG = txFifoCtrl;
 314:Generated_Source\PSoC4/I2C_Slave.c **** }
 315:Generated_Source\PSoC4/I2C_Slave.c **** 
 316:Generated_Source\PSoC4/I2C_Slave.c **** 
 317:Generated_Source\PSoC4/I2C_Slave.c **** #if (I2C_Slave_SCB_IRQ_INTERNAL)
 318:Generated_Source\PSoC4/I2C_Slave.c ****     /*******************************************************************************
 319:Generated_Source\PSoC4/I2C_Slave.c ****     * Function Name: I2C_Slave_SetCustomInterruptHandler
 320:Generated_Source\PSoC4/I2C_Slave.c ****     ****************************************************************************//**
 321:Generated_Source\PSoC4/I2C_Slave.c ****     *
 322:Generated_Source\PSoC4/I2C_Slave.c ****     *  Registers a function to be called by the internal interrupt handler.
 323:Generated_Source\PSoC4/I2C_Slave.c ****     *  First the function that is registered is called, then the internal interrupt
 324:Generated_Source\PSoC4/I2C_Slave.c ****     *  handler performs any operation such as software buffer management functions
 325:Generated_Source\PSoC4/I2C_Slave.c ****     *  before the interrupt returns.  It is the user's responsibility not to break
 326:Generated_Source\PSoC4/I2C_Slave.c ****     *  the software buffer operations. Only one custom handler is supported, which
 327:Generated_Source\PSoC4/I2C_Slave.c ****     *  is the function provided by the most recent call.
 328:Generated_Source\PSoC4/I2C_Slave.c ****     *  At the initialization time no custom handler is registered.
 329:Generated_Source\PSoC4/I2C_Slave.c ****     *
 330:Generated_Source\PSoC4/I2C_Slave.c ****     *  \param func: Pointer to the function to register.
 331:Generated_Source\PSoC4/I2C_Slave.c ****     *        The value NULL indicates to remove the current custom interrupt
 332:Generated_Source\PSoC4/I2C_Slave.c ****     *        handler.
 333:Generated_Source\PSoC4/I2C_Slave.c ****     *
ARM GAS  C:\Users\TIMCHE~1\AppData\Local\Temp\ccOLAcjB.s 			page 8


 334:Generated_Source\PSoC4/I2C_Slave.c ****     *******************************************************************************/
 335:Generated_Source\PSoC4/I2C_Slave.c ****     void I2C_Slave_SetCustomInterruptHandler(void (*func)(void))
 336:Generated_Source\PSoC4/I2C_Slave.c ****     {
 337:Generated_Source\PSoC4/I2C_Slave.c ****     #if !defined (CY_REMOVE_I2C_Slave_CUSTOM_INTR_HANDLER)
 338:Generated_Source\PSoC4/I2C_Slave.c ****         I2C_Slave_customIntrHandler = func; /* Register interrupt handler */
 339:Generated_Source\PSoC4/I2C_Slave.c ****     #else
 340:Generated_Source\PSoC4/I2C_Slave.c ****         if (NULL != func)
 341:Generated_Source\PSoC4/I2C_Slave.c ****         {
 342:Generated_Source\PSoC4/I2C_Slave.c ****             /* Suppress compiler warning */
 343:Generated_Source\PSoC4/I2C_Slave.c ****         }
 344:Generated_Source\PSoC4/I2C_Slave.c ****     #endif /* !defined (CY_REMOVE_I2C_Slave_CUSTOM_INTR_HANDLER) */
 345:Generated_Source\PSoC4/I2C_Slave.c ****     }
 346:Generated_Source\PSoC4/I2C_Slave.c **** #endif /* (I2C_Slave_SCB_IRQ_INTERNAL) */
 347:Generated_Source\PSoC4/I2C_Slave.c **** 
 348:Generated_Source\PSoC4/I2C_Slave.c **** 
 349:Generated_Source\PSoC4/I2C_Slave.c **** /*******************************************************************************
 350:Generated_Source\PSoC4/I2C_Slave.c **** * Function Name: I2C_Slave_ScbModeEnableIntr
 351:Generated_Source\PSoC4/I2C_Slave.c **** ****************************************************************************//**
 352:Generated_Source\PSoC4/I2C_Slave.c **** *
 353:Generated_Source\PSoC4/I2C_Slave.c **** *  Enables an interrupt for a specific mode.
 354:Generated_Source\PSoC4/I2C_Slave.c **** *
 355:Generated_Source\PSoC4/I2C_Slave.c **** *******************************************************************************/
 356:Generated_Source\PSoC4/I2C_Slave.c **** static void I2C_Slave_ScbEnableIntr(void)
 357:Generated_Source\PSoC4/I2C_Slave.c **** {
 358:Generated_Source\PSoC4/I2C_Slave.c **** #if (I2C_Slave_SCB_IRQ_INTERNAL)
 359:Generated_Source\PSoC4/I2C_Slave.c ****     /* Enable interrupt in NVIC */
 360:Generated_Source\PSoC4/I2C_Slave.c ****     #if (I2C_Slave_SCB_MODE_UNCONFIG_CONST_CFG)
 361:Generated_Source\PSoC4/I2C_Slave.c ****         if (0u != I2C_Slave_scbEnableIntr)
 362:Generated_Source\PSoC4/I2C_Slave.c ****         {
 363:Generated_Source\PSoC4/I2C_Slave.c ****             I2C_Slave_EnableInt();
 364:Generated_Source\PSoC4/I2C_Slave.c ****         }
 365:Generated_Source\PSoC4/I2C_Slave.c **** 
 366:Generated_Source\PSoC4/I2C_Slave.c ****     #else
 367:Generated_Source\PSoC4/I2C_Slave.c ****         I2C_Slave_EnableInt();
  66              		.loc 1 367 0
  67 000e 0520     		mov	r0, #5
  68 0010 FFF7FEFF 		bl	CyIntEnable
  69              	.LVL1:
  70              	.LBE11:
  71              	.LBE10:
 192:Generated_Source\PSoC4/I2C_Slave.c **** 
  72              		.loc 1 192 0
  73              		@ sp needed
  74 0014 08BD     		pop	{r3, pc}
  75              	.L4:
  76 0016 C046     		.align	2
  77              	.L3:
  78 0018 00000640 		.word	1074135040
  79              		.cfi_endproc
  80              	.LFE1:
  81              		.size	I2C_Slave_Enable, .-I2C_Slave_Enable
  82              		.section	.text.I2C_Slave_Start,"ax",%progbits
  83              		.align	1
  84              		.global	I2C_Slave_Start
  85              		.code	16
  86              		.thumb_func
  87              		.type	I2C_Slave_Start, %function
ARM GAS  C:\Users\TIMCHE~1\AppData\Local\Temp\ccOLAcjB.s 			page 9


  88              	I2C_Slave_Start:
  89              	.LFB2:
 211:Generated_Source\PSoC4/I2C_Slave.c ****     if (0u == I2C_Slave_initVar)
  90              		.loc 1 211 0
  91              		.cfi_startproc
  92 0000 10B5     		push	{r4, lr}
  93              		.cfi_def_cfa_offset 8
  94              		.cfi_offset 4, -8
  95              		.cfi_offset 14, -4
 212:Generated_Source\PSoC4/I2C_Slave.c ****     {
  96              		.loc 1 212 0
  97 0002 054C     		ldr	r4, .L8
  98 0004 2378     		ldrb	r3, [r4]
  99 0006 002B     		cmp	r3, #0
 100 0008 03D1     		bne	.L6
 101              	.LBB12:
 102              	.LBB13:
 136:Generated_Source\PSoC4/I2C_Slave.c **** 
 103              		.loc 1 136 0
 104 000a FFF7FEFF 		bl	I2C_Slave_I2CInit
 105              	.LVL2:
 106              	.LBE13:
 107              	.LBE12:
 215:Generated_Source\PSoC4/I2C_Slave.c ****     }
 108              		.loc 1 215 0
 109 000e 0123     		mov	r3, #1
 110 0010 2370     		strb	r3, [r4]
 111              	.L6:
 218:Generated_Source\PSoC4/I2C_Slave.c **** }
 112              		.loc 1 218 0
 113 0012 FFF7FEFF 		bl	I2C_Slave_Enable
 114              	.LVL3:
 219:Generated_Source\PSoC4/I2C_Slave.c **** 
 115              		.loc 1 219 0
 116              		@ sp needed
 117 0016 10BD     		pop	{r4, pc}
 118              	.L9:
 119              		.align	2
 120              	.L8:
 121 0018 00000000 		.word	.LANCHOR0
 122              		.cfi_endproc
 123              	.LFE2:
 124              		.size	I2C_Slave_Start, .-I2C_Slave_Start
 125              		.section	.text.I2C_Slave_Stop,"ax",%progbits
 126              		.align	1
 127              		.global	I2C_Slave_Stop
 128              		.code	16
 129              		.thumb_func
 130              		.type	I2C_Slave_Stop, %function
 131              	I2C_Slave_Stop:
 132              	.LFB3:
 240:Generated_Source\PSoC4/I2C_Slave.c **** #if (I2C_Slave_SCB_IRQ_INTERNAL)
 133              		.loc 1 240 0
 134              		.cfi_startproc
 135 0000 08B5     		push	{r3, lr}
 136              		.cfi_def_cfa_offset 8
 137              		.cfi_offset 3, -8
ARM GAS  C:\Users\TIMCHE~1\AppData\Local\Temp\ccOLAcjB.s 			page 10


 138              		.cfi_offset 14, -4
 242:Generated_Source\PSoC4/I2C_Slave.c **** #endif /* (I2C_Slave_SCB_IRQ_INTERNAL) */
 139              		.loc 1 242 0
 140 0002 0520     		mov	r0, #5
 141 0004 FFF7FEFF 		bl	CyIntDisable
 142              	.LVL4:
 143              	.LBB14:
 144              	.LBB15:
 368:Generated_Source\PSoC4/I2C_Slave.c **** 
 369:Generated_Source\PSoC4/I2C_Slave.c ****     #endif /* (I2C_Slave_SCB_MODE_UNCONFIG_CONST_CFG) */
 370:Generated_Source\PSoC4/I2C_Slave.c **** #endif /* (I2C_Slave_SCB_IRQ_INTERNAL) */
 371:Generated_Source\PSoC4/I2C_Slave.c **** }
 372:Generated_Source\PSoC4/I2C_Slave.c **** 
 373:Generated_Source\PSoC4/I2C_Slave.c **** 
 374:Generated_Source\PSoC4/I2C_Slave.c **** /*******************************************************************************
 375:Generated_Source\PSoC4/I2C_Slave.c **** * Function Name: I2C_Slave_ScbModePostEnable
 376:Generated_Source\PSoC4/I2C_Slave.c **** ****************************************************************************//**
 377:Generated_Source\PSoC4/I2C_Slave.c **** *
 378:Generated_Source\PSoC4/I2C_Slave.c **** *  Calls the PostEnable function for a specific operation mode.
 379:Generated_Source\PSoC4/I2C_Slave.c **** *
 380:Generated_Source\PSoC4/I2C_Slave.c **** *******************************************************************************/
 381:Generated_Source\PSoC4/I2C_Slave.c **** static void I2C_Slave_ScbModePostEnable(void)
 382:Generated_Source\PSoC4/I2C_Slave.c **** {
 383:Generated_Source\PSoC4/I2C_Slave.c **** #if (I2C_Slave_SCB_MODE_UNCONFIG_CONST_CFG)
 384:Generated_Source\PSoC4/I2C_Slave.c **** #if (!I2C_Slave_CY_SCBIP_V1)
 385:Generated_Source\PSoC4/I2C_Slave.c ****     if (I2C_Slave_SCB_MODE_SPI_RUNTM_CFG)
 386:Generated_Source\PSoC4/I2C_Slave.c ****     {
 387:Generated_Source\PSoC4/I2C_Slave.c ****         I2C_Slave_SpiPostEnable();
 388:Generated_Source\PSoC4/I2C_Slave.c ****     }
 389:Generated_Source\PSoC4/I2C_Slave.c ****     else if (I2C_Slave_SCB_MODE_UART_RUNTM_CFG)
 390:Generated_Source\PSoC4/I2C_Slave.c ****     {
 391:Generated_Source\PSoC4/I2C_Slave.c ****         I2C_Slave_UartPostEnable();
 392:Generated_Source\PSoC4/I2C_Slave.c ****     }
 393:Generated_Source\PSoC4/I2C_Slave.c ****     else
 394:Generated_Source\PSoC4/I2C_Slave.c ****     {
 395:Generated_Source\PSoC4/I2C_Slave.c ****         /* Unknown mode: do nothing */
 396:Generated_Source\PSoC4/I2C_Slave.c ****     }
 397:Generated_Source\PSoC4/I2C_Slave.c **** #endif /* (!I2C_Slave_CY_SCBIP_V1) */
 398:Generated_Source\PSoC4/I2C_Slave.c **** 
 399:Generated_Source\PSoC4/I2C_Slave.c **** #elif (I2C_Slave_SCB_MODE_SPI_CONST_CFG)
 400:Generated_Source\PSoC4/I2C_Slave.c ****     I2C_Slave_SpiPostEnable();
 401:Generated_Source\PSoC4/I2C_Slave.c **** 
 402:Generated_Source\PSoC4/I2C_Slave.c **** #elif (I2C_Slave_SCB_MODE_UART_CONST_CFG)
 403:Generated_Source\PSoC4/I2C_Slave.c ****     I2C_Slave_UartPostEnable();
 404:Generated_Source\PSoC4/I2C_Slave.c **** 
 405:Generated_Source\PSoC4/I2C_Slave.c **** #else
 406:Generated_Source\PSoC4/I2C_Slave.c ****     /* Unknown mode: do nothing */
 407:Generated_Source\PSoC4/I2C_Slave.c **** #endif /* (I2C_Slave_SCB_MODE_UNCONFIG_CONST_CFG) */
 408:Generated_Source\PSoC4/I2C_Slave.c **** }
 409:Generated_Source\PSoC4/I2C_Slave.c **** 
 410:Generated_Source\PSoC4/I2C_Slave.c **** 
 411:Generated_Source\PSoC4/I2C_Slave.c **** /*******************************************************************************
 412:Generated_Source\PSoC4/I2C_Slave.c **** * Function Name: I2C_Slave_ScbModeStop
 413:Generated_Source\PSoC4/I2C_Slave.c **** ****************************************************************************//**
 414:Generated_Source\PSoC4/I2C_Slave.c **** *
 415:Generated_Source\PSoC4/I2C_Slave.c **** *  Calls the Stop function for a specific operation mode.
 416:Generated_Source\PSoC4/I2C_Slave.c **** *
ARM GAS  C:\Users\TIMCHE~1\AppData\Local\Temp\ccOLAcjB.s 			page 11


 417:Generated_Source\PSoC4/I2C_Slave.c **** *******************************************************************************/
 418:Generated_Source\PSoC4/I2C_Slave.c **** static void I2C_Slave_ScbModeStop(void)
 419:Generated_Source\PSoC4/I2C_Slave.c **** {
 420:Generated_Source\PSoC4/I2C_Slave.c **** #if (I2C_Slave_SCB_MODE_UNCONFIG_CONST_CFG)
 421:Generated_Source\PSoC4/I2C_Slave.c ****     if (I2C_Slave_SCB_MODE_I2C_RUNTM_CFG)
 422:Generated_Source\PSoC4/I2C_Slave.c ****     {
 423:Generated_Source\PSoC4/I2C_Slave.c ****         I2C_Slave_I2CStop();
 424:Generated_Source\PSoC4/I2C_Slave.c ****     }
 425:Generated_Source\PSoC4/I2C_Slave.c ****     else if (I2C_Slave_SCB_MODE_EZI2C_RUNTM_CFG)
 426:Generated_Source\PSoC4/I2C_Slave.c ****     {
 427:Generated_Source\PSoC4/I2C_Slave.c ****         I2C_Slave_EzI2CStop();
 428:Generated_Source\PSoC4/I2C_Slave.c ****     }
 429:Generated_Source\PSoC4/I2C_Slave.c **** #if (!I2C_Slave_CY_SCBIP_V1)
 430:Generated_Source\PSoC4/I2C_Slave.c ****     else if (I2C_Slave_SCB_MODE_SPI_RUNTM_CFG)
 431:Generated_Source\PSoC4/I2C_Slave.c ****     {
 432:Generated_Source\PSoC4/I2C_Slave.c ****         I2C_Slave_SpiStop();
 433:Generated_Source\PSoC4/I2C_Slave.c ****     }
 434:Generated_Source\PSoC4/I2C_Slave.c ****     else if (I2C_Slave_SCB_MODE_UART_RUNTM_CFG)
 435:Generated_Source\PSoC4/I2C_Slave.c ****     {
 436:Generated_Source\PSoC4/I2C_Slave.c ****         I2C_Slave_UartStop();
 437:Generated_Source\PSoC4/I2C_Slave.c ****     }
 438:Generated_Source\PSoC4/I2C_Slave.c **** #endif /* (!I2C_Slave_CY_SCBIP_V1) */
 439:Generated_Source\PSoC4/I2C_Slave.c ****     else
 440:Generated_Source\PSoC4/I2C_Slave.c ****     {
 441:Generated_Source\PSoC4/I2C_Slave.c ****         /* Unknown mode: do nothing */
 442:Generated_Source\PSoC4/I2C_Slave.c ****     }
 443:Generated_Source\PSoC4/I2C_Slave.c **** #elif (I2C_Slave_SCB_MODE_I2C_CONST_CFG)
 444:Generated_Source\PSoC4/I2C_Slave.c ****     I2C_Slave_I2CStop();
 145              		.loc 1 444 0
 146 0008 FFF7FEFF 		bl	I2C_Slave_I2CStop
 147              	.LVL5:
 148              	.LBE15:
 149              	.LBE14:
 249:Generated_Source\PSoC4/I2C_Slave.c **** 
 150              		.loc 1 249 0
 151 000c 054A     		ldr	r2, .L11
 262:Generated_Source\PSoC4/I2C_Slave.c **** #endif /* (I2C_Slave_SCB_IRQ_INTERNAL) */
 152              		.loc 1 262 0
 153 000e 0520     		mov	r0, #5
 249:Generated_Source\PSoC4/I2C_Slave.c **** 
 154              		.loc 1 249 0
 155 0010 1368     		ldr	r3, [r2]
 264:Generated_Source\PSoC4/I2C_Slave.c **** 
 156              		.loc 1 264 0
 157              		@ sp needed
 249:Generated_Source\PSoC4/I2C_Slave.c **** 
 158              		.loc 1 249 0
 159 0012 5B00     		lsl	r3, r3, #1
 160 0014 5B08     		lsr	r3, r3, #1
 161 0016 1360     		str	r3, [r2]
 259:Generated_Source\PSoC4/I2C_Slave.c **** 
 162              		.loc 1 259 0
 163 0018 0022     		mov	r2, #0
 164 001a 034B     		ldr	r3, .L11+4
 165 001c 1A60     		str	r2, [r3]
 262:Generated_Source\PSoC4/I2C_Slave.c **** #endif /* (I2C_Slave_SCB_IRQ_INTERNAL) */
 166              		.loc 1 262 0
ARM GAS  C:\Users\TIMCHE~1\AppData\Local\Temp\ccOLAcjB.s 			page 12


 167 001e FFF7FEFF 		bl	CyIntClearPending
 168              	.LVL6:
 264:Generated_Source\PSoC4/I2C_Slave.c **** 
 169              		.loc 1 264 0
 170 0022 08BD     		pop	{r3, pc}
 171              	.L12:
 172              		.align	2
 173              	.L11:
 174 0024 00000640 		.word	1074135040
 175 0028 880F0640 		.word	1074139016
 176              		.cfi_endproc
 177              	.LFE3:
 178              		.size	I2C_Slave_Stop, .-I2C_Slave_Stop
 179              		.section	.text.I2C_Slave_SetRxFifoLevel,"ax",%progbits
 180              		.align	1
 181              		.global	I2C_Slave_SetRxFifoLevel
 182              		.code	16
 183              		.thumb_func
 184              		.type	I2C_Slave_SetRxFifoLevel, %function
 185              	I2C_Slave_SetRxFifoLevel:
 186              	.LFB4:
 280:Generated_Source\PSoC4/I2C_Slave.c ****     uint32 rxFifoCtrl;
 187              		.loc 1 280 0
 188              		.cfi_startproc
 189              	.LVL7:
 285:Generated_Source\PSoC4/I2C_Slave.c ****     rxFifoCtrl |= ((uint32) (I2C_Slave_RX_FIFO_CTRL_TRIGGER_LEVEL_MASK & level));
 190              		.loc 1 285 0
 191 0000 0722     		mov	r2, #7
 283:Generated_Source\PSoC4/I2C_Slave.c **** 
 192              		.loc 1 283 0
 193 0002 0349     		ldr	r1, .L14
 286:Generated_Source\PSoC4/I2C_Slave.c **** 
 194              		.loc 1 286 0
 195 0004 1040     		and	r0, r2
 196              	.LVL8:
 283:Generated_Source\PSoC4/I2C_Slave.c **** 
 197              		.loc 1 283 0
 198 0006 0B68     		ldr	r3, [r1]
 199              	.LVL9:
 289:Generated_Source\PSoC4/I2C_Slave.c **** 
 200              		.loc 1 289 0
 201              		@ sp needed
 285:Generated_Source\PSoC4/I2C_Slave.c ****     rxFifoCtrl |= ((uint32) (I2C_Slave_RX_FIFO_CTRL_TRIGGER_LEVEL_MASK & level));
 202              		.loc 1 285 0
 203 0008 9343     		bic	r3, r2
 204              	.LVL10:
 286:Generated_Source\PSoC4/I2C_Slave.c **** 
 205              		.loc 1 286 0
 206 000a 1843     		orr	r0, r3
 207              	.LVL11:
 288:Generated_Source\PSoC4/I2C_Slave.c **** }
 208              		.loc 1 288 0
 209 000c 0860     		str	r0, [r1]
 289:Generated_Source\PSoC4/I2C_Slave.c **** 
 210              		.loc 1 289 0
 211 000e 7047     		bx	lr
 212              	.L15:
ARM GAS  C:\Users\TIMCHE~1\AppData\Local\Temp\ccOLAcjB.s 			page 13


 213              		.align	2
 214              	.L14:
 215 0010 04030640 		.word	1074135812
 216              		.cfi_endproc
 217              	.LFE4:
 218              		.size	I2C_Slave_SetRxFifoLevel, .-I2C_Slave_SetRxFifoLevel
 219              		.section	.text.I2C_Slave_SetTxFifoLevel,"ax",%progbits
 220              		.align	1
 221              		.global	I2C_Slave_SetTxFifoLevel
 222              		.code	16
 223              		.thumb_func
 224              		.type	I2C_Slave_SetTxFifoLevel, %function
 225              	I2C_Slave_SetTxFifoLevel:
 226              	.LFB5:
 305:Generated_Source\PSoC4/I2C_Slave.c ****     uint32 txFifoCtrl;
 227              		.loc 1 305 0
 228              		.cfi_startproc
 229              	.LVL12:
 310:Generated_Source\PSoC4/I2C_Slave.c ****     txFifoCtrl |= ((uint32) (I2C_Slave_TX_FIFO_CTRL_TRIGGER_LEVEL_MASK & level));
 230              		.loc 1 310 0
 231 0000 0722     		mov	r2, #7
 308:Generated_Source\PSoC4/I2C_Slave.c **** 
 232              		.loc 1 308 0
 233 0002 0349     		ldr	r1, .L17
 311:Generated_Source\PSoC4/I2C_Slave.c **** 
 234              		.loc 1 311 0
 235 0004 1040     		and	r0, r2
 236              	.LVL13:
 308:Generated_Source\PSoC4/I2C_Slave.c **** 
 237              		.loc 1 308 0
 238 0006 0B68     		ldr	r3, [r1]
 239              	.LVL14:
 314:Generated_Source\PSoC4/I2C_Slave.c **** 
 240              		.loc 1 314 0
 241              		@ sp needed
 310:Generated_Source\PSoC4/I2C_Slave.c ****     txFifoCtrl |= ((uint32) (I2C_Slave_TX_FIFO_CTRL_TRIGGER_LEVEL_MASK & level));
 242              		.loc 1 310 0
 243 0008 9343     		bic	r3, r2
 244              	.LVL15:
 311:Generated_Source\PSoC4/I2C_Slave.c **** 
 245              		.loc 1 311 0
 246 000a 1843     		orr	r0, r3
 247              	.LVL16:
 313:Generated_Source\PSoC4/I2C_Slave.c **** }
 248              		.loc 1 313 0
 249 000c 0860     		str	r0, [r1]
 314:Generated_Source\PSoC4/I2C_Slave.c **** 
 250              		.loc 1 314 0
 251 000e 7047     		bx	lr
 252              	.L18:
 253              		.align	2
 254              	.L17:
 255 0010 04020640 		.word	1074135556
 256              		.cfi_endproc
 257              	.LFE5:
 258              		.size	I2C_Slave_SetTxFifoLevel, .-I2C_Slave_SetTxFifoLevel
 259              		.section	.text.I2C_Slave_SetCustomInterruptHandler,"ax",%progbits
ARM GAS  C:\Users\TIMCHE~1\AppData\Local\Temp\ccOLAcjB.s 			page 14


 260              		.align	1
 261              		.global	I2C_Slave_SetCustomInterruptHandler
 262              		.code	16
 263              		.thumb_func
 264              		.type	I2C_Slave_SetCustomInterruptHandler, %function
 265              	I2C_Slave_SetCustomInterruptHandler:
 266              	.LFB6:
 336:Generated_Source\PSoC4/I2C_Slave.c ****     #if !defined (CY_REMOVE_I2C_Slave_CUSTOM_INTR_HANDLER)
 267              		.loc 1 336 0
 268              		.cfi_startproc
 269              	.LVL17:
 338:Generated_Source\PSoC4/I2C_Slave.c ****     #else
 270              		.loc 1 338 0
 271 0000 014B     		ldr	r3, .L20
 345:Generated_Source\PSoC4/I2C_Slave.c **** #endif /* (I2C_Slave_SCB_IRQ_INTERNAL) */
 272              		.loc 1 345 0
 273              		@ sp needed
 338:Generated_Source\PSoC4/I2C_Slave.c ****     #else
 274              		.loc 1 338 0
 275 0002 5860     		str	r0, [r3, #4]
 345:Generated_Source\PSoC4/I2C_Slave.c **** #endif /* (I2C_Slave_SCB_IRQ_INTERNAL) */
 276              		.loc 1 345 0
 277 0004 7047     		bx	lr
 278              	.L21:
 279 0006 C046     		.align	2
 280              	.L20:
 281 0008 00000000 		.word	.LANCHOR0
 282              		.cfi_endproc
 283              	.LFE6:
 284              		.size	I2C_Slave_SetCustomInterruptHandler, .-I2C_Slave_SetCustomInterruptHandler
 285              		.section	.text.I2C_Slave_I2CSlaveNackGeneration,"ax",%progbits
 286              		.align	1
 287              		.global	I2C_Slave_I2CSlaveNackGeneration
 288              		.code	16
 289              		.thumb_func
 290              		.type	I2C_Slave_I2CSlaveNackGeneration, %function
 291              	I2C_Slave_I2CSlaveNackGeneration:
 292              	.LFB10:
 445:Generated_Source\PSoC4/I2C_Slave.c **** 
 446:Generated_Source\PSoC4/I2C_Slave.c **** #elif (I2C_Slave_SCB_MODE_EZI2C_CONST_CFG)
 447:Generated_Source\PSoC4/I2C_Slave.c ****     I2C_Slave_EzI2CStop();
 448:Generated_Source\PSoC4/I2C_Slave.c **** 
 449:Generated_Source\PSoC4/I2C_Slave.c **** #elif (I2C_Slave_SCB_MODE_SPI_CONST_CFG)
 450:Generated_Source\PSoC4/I2C_Slave.c ****     I2C_Slave_SpiStop();
 451:Generated_Source\PSoC4/I2C_Slave.c **** 
 452:Generated_Source\PSoC4/I2C_Slave.c **** #elif (I2C_Slave_SCB_MODE_UART_CONST_CFG)
 453:Generated_Source\PSoC4/I2C_Slave.c ****     I2C_Slave_UartStop();
 454:Generated_Source\PSoC4/I2C_Slave.c **** 
 455:Generated_Source\PSoC4/I2C_Slave.c **** #else
 456:Generated_Source\PSoC4/I2C_Slave.c ****     /* Unknown mode: do nothing */
 457:Generated_Source\PSoC4/I2C_Slave.c **** #endif /* (I2C_Slave_SCB_MODE_UNCONFIG_CONST_CFG) */
 458:Generated_Source\PSoC4/I2C_Slave.c **** }
 459:Generated_Source\PSoC4/I2C_Slave.c **** 
 460:Generated_Source\PSoC4/I2C_Slave.c **** 
 461:Generated_Source\PSoC4/I2C_Slave.c **** #if (I2C_Slave_SCB_MODE_UNCONFIG_CONST_CFG)
 462:Generated_Source\PSoC4/I2C_Slave.c ****     /*******************************************************************************
 463:Generated_Source\PSoC4/I2C_Slave.c ****     * Function Name: I2C_Slave_SetPins
ARM GAS  C:\Users\TIMCHE~1\AppData\Local\Temp\ccOLAcjB.s 			page 15


 464:Generated_Source\PSoC4/I2C_Slave.c ****     ****************************************************************************//**
 465:Generated_Source\PSoC4/I2C_Slave.c ****     *
 466:Generated_Source\PSoC4/I2C_Slave.c ****     *  Sets the pins settings accordingly to the selected operation mode.
 467:Generated_Source\PSoC4/I2C_Slave.c ****     *  Only available in the Unconfigured operation mode. The mode specific
 468:Generated_Source\PSoC4/I2C_Slave.c ****     *  initialization function calls it.
 469:Generated_Source\PSoC4/I2C_Slave.c ****     *  Pins configuration is set by PSoC Creator when a specific mode of operation
 470:Generated_Source\PSoC4/I2C_Slave.c ****     *  is selected in design time.
 471:Generated_Source\PSoC4/I2C_Slave.c ****     *
 472:Generated_Source\PSoC4/I2C_Slave.c ****     *  \param mode:      Mode of SCB operation.
 473:Generated_Source\PSoC4/I2C_Slave.c ****     *  \param subMode:   Sub-mode of SCB operation. It is only required for SPI and UART
 474:Generated_Source\PSoC4/I2C_Slave.c ****     *             modes.
 475:Generated_Source\PSoC4/I2C_Slave.c ****     *  \param uartEnableMask: enables TX or RX direction and RTS and CTS signals.
 476:Generated_Source\PSoC4/I2C_Slave.c ****     *
 477:Generated_Source\PSoC4/I2C_Slave.c ****     *******************************************************************************/
 478:Generated_Source\PSoC4/I2C_Slave.c ****     void I2C_Slave_SetPins(uint32 mode, uint32 subMode, uint32 uartEnableMask)
 479:Generated_Source\PSoC4/I2C_Slave.c ****     {
 480:Generated_Source\PSoC4/I2C_Slave.c ****         uint32 pinsDm[I2C_Slave_SCB_PINS_NUMBER];
 481:Generated_Source\PSoC4/I2C_Slave.c ****         uint32 i;
 482:Generated_Source\PSoC4/I2C_Slave.c ****         
 483:Generated_Source\PSoC4/I2C_Slave.c ****     #if (!I2C_Slave_CY_SCBIP_V1)
 484:Generated_Source\PSoC4/I2C_Slave.c ****         uint32 pinsInBuf = 0u;
 485:Generated_Source\PSoC4/I2C_Slave.c ****     #endif /* (!I2C_Slave_CY_SCBIP_V1) */
 486:Generated_Source\PSoC4/I2C_Slave.c ****         
 487:Generated_Source\PSoC4/I2C_Slave.c ****         uint32 hsiomSel[I2C_Slave_SCB_PINS_NUMBER] = 
 488:Generated_Source\PSoC4/I2C_Slave.c ****         {
 489:Generated_Source\PSoC4/I2C_Slave.c ****             I2C_Slave_SCL_HSIOM_SEL_GPIO,
 490:Generated_Source\PSoC4/I2C_Slave.c ****             I2C_Slave_SDA_HSIOM_SEL_GPIO,
 491:Generated_Source\PSoC4/I2C_Slave.c **** 
 492:Generated_Source\PSoC4/I2C_Slave.c ****         };
 493:Generated_Source\PSoC4/I2C_Slave.c **** 
 494:Generated_Source\PSoC4/I2C_Slave.c ****     #if (I2C_Slave_CY_SCBIP_V1)
 495:Generated_Source\PSoC4/I2C_Slave.c ****         /* Supress compiler warning. */
 496:Generated_Source\PSoC4/I2C_Slave.c ****         if ((0u == subMode) || (0u == uartEnableMask))
 497:Generated_Source\PSoC4/I2C_Slave.c ****         {
 498:Generated_Source\PSoC4/I2C_Slave.c ****         }
 499:Generated_Source\PSoC4/I2C_Slave.c ****     #endif /* (I2C_Slave_CY_SCBIP_V1) */
 500:Generated_Source\PSoC4/I2C_Slave.c **** 
 501:Generated_Source\PSoC4/I2C_Slave.c ****         /* Set default HSIOM to GPIO and Drive Mode to Analog Hi-Z */
 502:Generated_Source\PSoC4/I2C_Slave.c ****         for (i = 0u; i < I2C_Slave_SCB_PINS_NUMBER; i++)
 503:Generated_Source\PSoC4/I2C_Slave.c ****         {
 504:Generated_Source\PSoC4/I2C_Slave.c ****             pinsDm[i] = I2C_Slave_PIN_DM_ALG_HIZ;
 505:Generated_Source\PSoC4/I2C_Slave.c ****         }
 506:Generated_Source\PSoC4/I2C_Slave.c **** 
 507:Generated_Source\PSoC4/I2C_Slave.c ****         if ((I2C_Slave_SCB_MODE_I2C   == mode) ||
 508:Generated_Source\PSoC4/I2C_Slave.c ****             (I2C_Slave_SCB_MODE_EZI2C == mode))
 509:Generated_Source\PSoC4/I2C_Slave.c ****         {
 510:Generated_Source\PSoC4/I2C_Slave.c ****         #if (I2C_Slave_SCL_PIN)
 511:Generated_Source\PSoC4/I2C_Slave.c ****             hsiomSel[I2C_Slave_SCL_PIN_INDEX] = I2C_Slave_SCL_HSIOM_SEL_I2C;
 512:Generated_Source\PSoC4/I2C_Slave.c ****             pinsDm  [I2C_Slave_SCL_PIN_INDEX] = I2C_Slave_PIN_DM_OD_LO;
 513:Generated_Source\PSoC4/I2C_Slave.c ****         #elif (I2C_Slave_RX_WAKE_SDA_MOSI_PIN)
 514:Generated_Source\PSoC4/I2C_Slave.c ****             hsiomSel[I2C_Slave_RX_WAKE_SDA_MOSI_PIN_INDEX] = I2C_Slave_RX_WAKE_SDA_MOSI_HSIOM_SEL_I
 515:Generated_Source\PSoC4/I2C_Slave.c ****             pinsDm  [I2C_Slave_RX_WAKE_SDA_MOSI_PIN_INDEX] = I2C_Slave_PIN_DM_OD_LO;
 516:Generated_Source\PSoC4/I2C_Slave.c ****         #else
 517:Generated_Source\PSoC4/I2C_Slave.c ****         #endif /* (I2C_Slave_SCL_PIN) */
 518:Generated_Source\PSoC4/I2C_Slave.c ****         
 519:Generated_Source\PSoC4/I2C_Slave.c ****         #if (I2C_Slave_SDA_PIN)
 520:Generated_Source\PSoC4/I2C_Slave.c ****             hsiomSel[I2C_Slave_SDA_PIN_INDEX] = I2C_Slave_SDA_HSIOM_SEL_I2C;
ARM GAS  C:\Users\TIMCHE~1\AppData\Local\Temp\ccOLAcjB.s 			page 16


 521:Generated_Source\PSoC4/I2C_Slave.c ****             pinsDm  [I2C_Slave_SDA_PIN_INDEX] = I2C_Slave_PIN_DM_OD_LO;
 522:Generated_Source\PSoC4/I2C_Slave.c ****         #endif /* (I2C_Slave_SDA_PIN) */
 523:Generated_Source\PSoC4/I2C_Slave.c ****         }
 524:Generated_Source\PSoC4/I2C_Slave.c ****     #if (!I2C_Slave_CY_SCBIP_V1)
 525:Generated_Source\PSoC4/I2C_Slave.c ****         else if (I2C_Slave_SCB_MODE_SPI == mode)
 526:Generated_Source\PSoC4/I2C_Slave.c ****         {
 527:Generated_Source\PSoC4/I2C_Slave.c ****         #if (I2C_Slave_SCL_PIN)
 528:Generated_Source\PSoC4/I2C_Slave.c ****             hsiomSel[I2C_Slave_SCL_PIN_INDEX] = I2C_Slave_SCL_HSIOM_SEL_SPI;
 529:Generated_Source\PSoC4/I2C_Slave.c ****         #elif (I2C_Slave_RX_WAKE_SDA_MOSI_PIN)
 530:Generated_Source\PSoC4/I2C_Slave.c ****             hsiomSel[I2C_Slave_RX_WAKE_SDA_MOSI_PIN_INDEX] = I2C_Slave_RX_WAKE_SDA_MOSI_HSIOM_SEL_S
 531:Generated_Source\PSoC4/I2C_Slave.c ****         #else
 532:Generated_Source\PSoC4/I2C_Slave.c ****         #endif /* (I2C_Slave_SCL_PIN) */
 533:Generated_Source\PSoC4/I2C_Slave.c ****         
 534:Generated_Source\PSoC4/I2C_Slave.c ****         #if (I2C_Slave_SDA_PIN)
 535:Generated_Source\PSoC4/I2C_Slave.c ****             hsiomSel[I2C_Slave_SDA_PIN_INDEX] = I2C_Slave_SDA_HSIOM_SEL_SPI;
 536:Generated_Source\PSoC4/I2C_Slave.c ****         #endif /* (I2C_Slave_SDA_PIN) */
 537:Generated_Source\PSoC4/I2C_Slave.c ****         
 538:Generated_Source\PSoC4/I2C_Slave.c ****         #if (I2C_Slave_CTS_SCLK_PIN)
 539:Generated_Source\PSoC4/I2C_Slave.c ****             hsiomSel[I2C_Slave_CTS_SCLK_PIN_INDEX] = I2C_Slave_CTS_SCLK_HSIOM_SEL_SPI;
 540:Generated_Source\PSoC4/I2C_Slave.c ****         #endif /* (I2C_Slave_CTS_SCLK_PIN) */
 541:Generated_Source\PSoC4/I2C_Slave.c **** 
 542:Generated_Source\PSoC4/I2C_Slave.c ****             if (I2C_Slave_SPI_SLAVE == subMode)
 543:Generated_Source\PSoC4/I2C_Slave.c ****             {
 544:Generated_Source\PSoC4/I2C_Slave.c ****                 /* Slave */
 545:Generated_Source\PSoC4/I2C_Slave.c ****                 pinsDm[I2C_Slave_SCL_PIN_INDEX] = I2C_Slave_PIN_DM_DIG_HIZ;
 546:Generated_Source\PSoC4/I2C_Slave.c ****                 pinsDm[I2C_Slave_SDA_PIN_INDEX] = I2C_Slave_PIN_DM_STRONG;
 547:Generated_Source\PSoC4/I2C_Slave.c ****                 pinsDm[I2C_Slave_CTS_SCLK_PIN_INDEX] = I2C_Slave_PIN_DM_DIG_HIZ;
 548:Generated_Source\PSoC4/I2C_Slave.c **** 
 549:Generated_Source\PSoC4/I2C_Slave.c ****             #if (I2C_Slave_RTS_SS0_PIN)
 550:Generated_Source\PSoC4/I2C_Slave.c ****                 /* Only SS0 is valid choice for Slave */
 551:Generated_Source\PSoC4/I2C_Slave.c ****                 hsiomSel[I2C_Slave_RTS_SS0_PIN_INDEX] = I2C_Slave_RTS_SS0_HSIOM_SEL_SPI;
 552:Generated_Source\PSoC4/I2C_Slave.c ****                 pinsDm  [I2C_Slave_RTS_SS0_PIN_INDEX] = I2C_Slave_PIN_DM_DIG_HIZ;
 553:Generated_Source\PSoC4/I2C_Slave.c ****             #endif /* (I2C_Slave_RTS_SS0_PIN) */
 554:Generated_Source\PSoC4/I2C_Slave.c **** 
 555:Generated_Source\PSoC4/I2C_Slave.c ****             #if (I2C_Slave_SDA_PIN)
 556:Generated_Source\PSoC4/I2C_Slave.c ****                 /* Disable input buffer */
 557:Generated_Source\PSoC4/I2C_Slave.c ****                  pinsInBuf |= I2C_Slave_SDA_PIN_MASK;
 558:Generated_Source\PSoC4/I2C_Slave.c ****             #endif /* (I2C_Slave_SDA_PIN) */
 559:Generated_Source\PSoC4/I2C_Slave.c ****             }
 560:Generated_Source\PSoC4/I2C_Slave.c ****             else 
 561:Generated_Source\PSoC4/I2C_Slave.c ****             {
 562:Generated_Source\PSoC4/I2C_Slave.c ****                 /* (Master) */
 563:Generated_Source\PSoC4/I2C_Slave.c ****                 pinsDm[I2C_Slave_SCL_PIN_INDEX] = I2C_Slave_PIN_DM_STRONG;
 564:Generated_Source\PSoC4/I2C_Slave.c ****                 pinsDm[I2C_Slave_SDA_PIN_INDEX] = I2C_Slave_PIN_DM_DIG_HIZ;
 565:Generated_Source\PSoC4/I2C_Slave.c ****                 pinsDm[I2C_Slave_CTS_SCLK_PIN_INDEX] = I2C_Slave_PIN_DM_STRONG;
 566:Generated_Source\PSoC4/I2C_Slave.c **** 
 567:Generated_Source\PSoC4/I2C_Slave.c ****             #if (I2C_Slave_RTS_SS0_PIN)
 568:Generated_Source\PSoC4/I2C_Slave.c ****                 hsiomSel [I2C_Slave_RTS_SS0_PIN_INDEX] = I2C_Slave_RTS_SS0_HSIOM_SEL_SPI;
 569:Generated_Source\PSoC4/I2C_Slave.c ****                 pinsDm   [I2C_Slave_RTS_SS0_PIN_INDEX] = I2C_Slave_PIN_DM_STRONG;
 570:Generated_Source\PSoC4/I2C_Slave.c ****                 pinsInBuf |= I2C_Slave_RTS_SS0_PIN_MASK;
 571:Generated_Source\PSoC4/I2C_Slave.c ****             #endif /* (I2C_Slave_RTS_SS0_PIN) */
 572:Generated_Source\PSoC4/I2C_Slave.c **** 
 573:Generated_Source\PSoC4/I2C_Slave.c ****             #if (I2C_Slave_SS1_PIN)
 574:Generated_Source\PSoC4/I2C_Slave.c ****                 hsiomSel [I2C_Slave_SS1_PIN_INDEX] = I2C_Slave_SS1_HSIOM_SEL_SPI;
 575:Generated_Source\PSoC4/I2C_Slave.c ****                 pinsDm   [I2C_Slave_SS1_PIN_INDEX] = I2C_Slave_PIN_DM_STRONG;
 576:Generated_Source\PSoC4/I2C_Slave.c ****                 pinsInBuf |= I2C_Slave_SS1_PIN_MASK;
 577:Generated_Source\PSoC4/I2C_Slave.c ****             #endif /* (I2C_Slave_SS1_PIN) */
ARM GAS  C:\Users\TIMCHE~1\AppData\Local\Temp\ccOLAcjB.s 			page 17


 578:Generated_Source\PSoC4/I2C_Slave.c **** 
 579:Generated_Source\PSoC4/I2C_Slave.c ****             #if (I2C_Slave_SS2_PIN)
 580:Generated_Source\PSoC4/I2C_Slave.c ****                 hsiomSel [I2C_Slave_SS2_PIN_INDEX] = I2C_Slave_SS2_HSIOM_SEL_SPI;
 581:Generated_Source\PSoC4/I2C_Slave.c ****                 pinsDm   [I2C_Slave_SS2_PIN_INDEX] = I2C_Slave_PIN_DM_STRONG;
 582:Generated_Source\PSoC4/I2C_Slave.c ****                 pinsInBuf |= I2C_Slave_SS2_PIN_MASK;
 583:Generated_Source\PSoC4/I2C_Slave.c ****             #endif /* (I2C_Slave_SS2_PIN) */
 584:Generated_Source\PSoC4/I2C_Slave.c **** 
 585:Generated_Source\PSoC4/I2C_Slave.c ****             #if (I2C_Slave_SS3_PIN)
 586:Generated_Source\PSoC4/I2C_Slave.c ****                 hsiomSel [I2C_Slave_SS3_PIN_INDEX] = I2C_Slave_SS3_HSIOM_SEL_SPI;
 587:Generated_Source\PSoC4/I2C_Slave.c ****                 pinsDm   [I2C_Slave_SS3_PIN_INDEX] = I2C_Slave_PIN_DM_STRONG;
 588:Generated_Source\PSoC4/I2C_Slave.c ****                 pinsInBuf |= I2C_Slave_SS3_PIN_MASK;
 589:Generated_Source\PSoC4/I2C_Slave.c ****             #endif /* (I2C_Slave_SS3_PIN) */
 590:Generated_Source\PSoC4/I2C_Slave.c **** 
 591:Generated_Source\PSoC4/I2C_Slave.c ****                 /* Disable input buffers */
 592:Generated_Source\PSoC4/I2C_Slave.c ****             #if (I2C_Slave_SCL_PIN)
 593:Generated_Source\PSoC4/I2C_Slave.c ****                 pinsInBuf |= I2C_Slave_SCL_PIN_MASK;
 594:Generated_Source\PSoC4/I2C_Slave.c ****             #elif (I2C_Slave_RX_WAKE_SDA_MOSI_PIN)
 595:Generated_Source\PSoC4/I2C_Slave.c ****                 pinsInBuf |= I2C_Slave_RX_WAKE_SDA_MOSI_PIN_MASK;
 596:Generated_Source\PSoC4/I2C_Slave.c ****             #else
 597:Generated_Source\PSoC4/I2C_Slave.c ****             #endif /* (I2C_Slave_SCL_PIN) */
 598:Generated_Source\PSoC4/I2C_Slave.c **** 
 599:Generated_Source\PSoC4/I2C_Slave.c ****             #if (I2C_Slave_CTS_SCLK_PIN)
 600:Generated_Source\PSoC4/I2C_Slave.c ****                 pinsInBuf |= I2C_Slave_CTS_SCLK_PIN_MASK;
 601:Generated_Source\PSoC4/I2C_Slave.c ****             #endif /* (I2C_Slave_CTS_SCLK_PIN) */
 602:Generated_Source\PSoC4/I2C_Slave.c ****             }
 603:Generated_Source\PSoC4/I2C_Slave.c ****         }
 604:Generated_Source\PSoC4/I2C_Slave.c ****         else /* UART */
 605:Generated_Source\PSoC4/I2C_Slave.c ****         {
 606:Generated_Source\PSoC4/I2C_Slave.c ****             if (I2C_Slave_UART_MODE_SMARTCARD == subMode)
 607:Generated_Source\PSoC4/I2C_Slave.c ****             {
 608:Generated_Source\PSoC4/I2C_Slave.c ****                 /* SmartCard */
 609:Generated_Source\PSoC4/I2C_Slave.c ****             #if (I2C_Slave_SDA_PIN)
 610:Generated_Source\PSoC4/I2C_Slave.c ****                 hsiomSel[I2C_Slave_SDA_PIN_INDEX] = I2C_Slave_SDA_HSIOM_SEL_UART;
 611:Generated_Source\PSoC4/I2C_Slave.c ****                 pinsDm  [I2C_Slave_SDA_PIN_INDEX] = I2C_Slave_PIN_DM_OD_LO;
 612:Generated_Source\PSoC4/I2C_Slave.c ****             #endif /* (I2C_Slave_SDA_PIN) */
 613:Generated_Source\PSoC4/I2C_Slave.c ****             }
 614:Generated_Source\PSoC4/I2C_Slave.c ****             else /* Standard or IrDA */
 615:Generated_Source\PSoC4/I2C_Slave.c ****             {
 616:Generated_Source\PSoC4/I2C_Slave.c ****                 if (0u != (I2C_Slave_UART_RX_PIN_ENABLE & uartEnableMask))
 617:Generated_Source\PSoC4/I2C_Slave.c ****                 {
 618:Generated_Source\PSoC4/I2C_Slave.c ****                 #if (I2C_Slave_SCL_PIN)
 619:Generated_Source\PSoC4/I2C_Slave.c ****                     hsiomSel[I2C_Slave_SCL_PIN_INDEX] = I2C_Slave_SCL_HSIOM_SEL_UART;
 620:Generated_Source\PSoC4/I2C_Slave.c ****                     pinsDm  [I2C_Slave_SCL_PIN_INDEX] = I2C_Slave_PIN_DM_DIG_HIZ;
 621:Generated_Source\PSoC4/I2C_Slave.c ****                 #elif (I2C_Slave_RX_WAKE_SDA_MOSI_PIN)
 622:Generated_Source\PSoC4/I2C_Slave.c ****                     hsiomSel[I2C_Slave_RX_WAKE_SDA_MOSI_PIN_INDEX] = I2C_Slave_RX_WAKE_SDA_MOSI_HSI
 623:Generated_Source\PSoC4/I2C_Slave.c ****                     pinsDm  [I2C_Slave_RX_WAKE_SDA_MOSI_PIN_INDEX] = I2C_Slave_PIN_DM_DIG_HIZ;
 624:Generated_Source\PSoC4/I2C_Slave.c ****                 #else
 625:Generated_Source\PSoC4/I2C_Slave.c ****                 #endif /* (I2C_Slave_SCL_PIN) */
 626:Generated_Source\PSoC4/I2C_Slave.c ****                 }
 627:Generated_Source\PSoC4/I2C_Slave.c **** 
 628:Generated_Source\PSoC4/I2C_Slave.c ****                 if (0u != (I2C_Slave_UART_TX_PIN_ENABLE & uartEnableMask))
 629:Generated_Source\PSoC4/I2C_Slave.c ****                 {
 630:Generated_Source\PSoC4/I2C_Slave.c ****                 #if (I2C_Slave_SDA_PIN)
 631:Generated_Source\PSoC4/I2C_Slave.c ****                     hsiomSel[I2C_Slave_SDA_PIN_INDEX] = I2C_Slave_SDA_HSIOM_SEL_UART;
 632:Generated_Source\PSoC4/I2C_Slave.c ****                     pinsDm  [I2C_Slave_SDA_PIN_INDEX] = I2C_Slave_PIN_DM_STRONG;
 633:Generated_Source\PSoC4/I2C_Slave.c ****                     
 634:Generated_Source\PSoC4/I2C_Slave.c ****                     /* Disable input buffer */
ARM GAS  C:\Users\TIMCHE~1\AppData\Local\Temp\ccOLAcjB.s 			page 18


 635:Generated_Source\PSoC4/I2C_Slave.c ****                     pinsInBuf |= I2C_Slave_SDA_PIN_MASK;
 636:Generated_Source\PSoC4/I2C_Slave.c ****                 #endif /* (I2C_Slave_SDA_PIN) */
 637:Generated_Source\PSoC4/I2C_Slave.c ****                 }
 638:Generated_Source\PSoC4/I2C_Slave.c **** 
 639:Generated_Source\PSoC4/I2C_Slave.c ****             #if !(I2C_Slave_CY_SCBIP_V0 || I2C_Slave_CY_SCBIP_V1)
 640:Generated_Source\PSoC4/I2C_Slave.c ****                 if (I2C_Slave_UART_MODE_STD == subMode)
 641:Generated_Source\PSoC4/I2C_Slave.c ****                 {
 642:Generated_Source\PSoC4/I2C_Slave.c ****                     if (0u != (I2C_Slave_UART_CTS_PIN_ENABLE & uartEnableMask))
 643:Generated_Source\PSoC4/I2C_Slave.c ****                     {
 644:Generated_Source\PSoC4/I2C_Slave.c ****                         /* CTS input is multiplexed with SCLK */
 645:Generated_Source\PSoC4/I2C_Slave.c ****                     #if (I2C_Slave_CTS_SCLK_PIN)
 646:Generated_Source\PSoC4/I2C_Slave.c ****                         hsiomSel[I2C_Slave_CTS_SCLK_PIN_INDEX] = I2C_Slave_CTS_SCLK_HSIOM_SEL_UART;
 647:Generated_Source\PSoC4/I2C_Slave.c ****                         pinsDm  [I2C_Slave_CTS_SCLK_PIN_INDEX] = I2C_Slave_PIN_DM_DIG_HIZ;
 648:Generated_Source\PSoC4/I2C_Slave.c ****                     #endif /* (I2C_Slave_CTS_SCLK_PIN) */
 649:Generated_Source\PSoC4/I2C_Slave.c ****                     }
 650:Generated_Source\PSoC4/I2C_Slave.c **** 
 651:Generated_Source\PSoC4/I2C_Slave.c ****                     if (0u != (I2C_Slave_UART_RTS_PIN_ENABLE & uartEnableMask))
 652:Generated_Source\PSoC4/I2C_Slave.c ****                     {
 653:Generated_Source\PSoC4/I2C_Slave.c ****                         /* RTS output is multiplexed with SS0 */
 654:Generated_Source\PSoC4/I2C_Slave.c ****                     #if (I2C_Slave_RTS_SS0_PIN)
 655:Generated_Source\PSoC4/I2C_Slave.c ****                         hsiomSel[I2C_Slave_RTS_SS0_PIN_INDEX] = I2C_Slave_RTS_SS0_HSIOM_SEL_UART;
 656:Generated_Source\PSoC4/I2C_Slave.c ****                         pinsDm  [I2C_Slave_RTS_SS0_PIN_INDEX] = I2C_Slave_PIN_DM_STRONG;
 657:Generated_Source\PSoC4/I2C_Slave.c ****                         
 658:Generated_Source\PSoC4/I2C_Slave.c ****                         /* Disable input buffer */
 659:Generated_Source\PSoC4/I2C_Slave.c ****                         pinsInBuf |= I2C_Slave_RTS_SS0_PIN_MASK;
 660:Generated_Source\PSoC4/I2C_Slave.c ****                     #endif /* (I2C_Slave_RTS_SS0_PIN) */
 661:Generated_Source\PSoC4/I2C_Slave.c ****                     }
 662:Generated_Source\PSoC4/I2C_Slave.c ****                 }
 663:Generated_Source\PSoC4/I2C_Slave.c ****             #endif /* !(I2C_Slave_CY_SCBIP_V0 || I2C_Slave_CY_SCBIP_V1) */
 664:Generated_Source\PSoC4/I2C_Slave.c ****             }
 665:Generated_Source\PSoC4/I2C_Slave.c ****         }
 666:Generated_Source\PSoC4/I2C_Slave.c ****     #endif /* (!I2C_Slave_CY_SCBIP_V1) */
 667:Generated_Source\PSoC4/I2C_Slave.c **** 
 668:Generated_Source\PSoC4/I2C_Slave.c ****     /* Configure pins: set HSIOM, DM and InputBufEnable */
 669:Generated_Source\PSoC4/I2C_Slave.c ****     /* Note: the DR register settings do not effect the pin output if HSIOM is other than GPIO */
 670:Generated_Source\PSoC4/I2C_Slave.c **** 
 671:Generated_Source\PSoC4/I2C_Slave.c ****     #if (I2C_Slave_SCL_PIN)
 672:Generated_Source\PSoC4/I2C_Slave.c ****         I2C_Slave_SET_HSIOM_SEL(I2C_Slave_SCL_HSIOM_REG,
 673:Generated_Source\PSoC4/I2C_Slave.c ****                                        I2C_Slave_SCL_HSIOM_MASK,
 674:Generated_Source\PSoC4/I2C_Slave.c ****                                        I2C_Slave_SCL_HSIOM_POS,
 675:Generated_Source\PSoC4/I2C_Slave.c ****                                         hsiomSel[I2C_Slave_SCL_PIN_INDEX]);
 676:Generated_Source\PSoC4/I2C_Slave.c **** 
 677:Generated_Source\PSoC4/I2C_Slave.c ****         I2C_Slave_i2c_scl_SetDriveMode((uint8) pinsDm[I2C_Slave_SCL_PIN_INDEX]);
 678:Generated_Source\PSoC4/I2C_Slave.c **** 
 679:Generated_Source\PSoC4/I2C_Slave.c ****         #if (!I2C_Slave_CY_SCBIP_V1)
 680:Generated_Source\PSoC4/I2C_Slave.c ****             I2C_Slave_SET_INP_DIS(I2C_Slave_i2c_scl_INP_DIS,
 681:Generated_Source\PSoC4/I2C_Slave.c ****                                          I2C_Slave_i2c_scl_MASK,
 682:Generated_Source\PSoC4/I2C_Slave.c ****                                          (0u != (pinsInBuf & I2C_Slave_SCL_PIN_MASK)));
 683:Generated_Source\PSoC4/I2C_Slave.c ****         #endif /* (!I2C_Slave_CY_SCBIP_V1) */
 684:Generated_Source\PSoC4/I2C_Slave.c ****     
 685:Generated_Source\PSoC4/I2C_Slave.c ****     #elif (I2C_Slave_RX_WAKE_SDA_MOSI_PIN)
 686:Generated_Source\PSoC4/I2C_Slave.c ****         I2C_Slave_SET_HSIOM_SEL(I2C_Slave_RX_WAKE_SDA_MOSI_HSIOM_REG,
 687:Generated_Source\PSoC4/I2C_Slave.c ****                                        I2C_Slave_RX_WAKE_SDA_MOSI_HSIOM_MASK,
 688:Generated_Source\PSoC4/I2C_Slave.c ****                                        I2C_Slave_RX_WAKE_SDA_MOSI_HSIOM_POS,
 689:Generated_Source\PSoC4/I2C_Slave.c ****                                        hsiomSel[I2C_Slave_RX_WAKE_SDA_MOSI_PIN_INDEX]);
 690:Generated_Source\PSoC4/I2C_Slave.c **** 
 691:Generated_Source\PSoC4/I2C_Slave.c ****         I2C_Slave_uart_rx_wake_i2c_sda_spi_mosi_SetDriveMode((uint8)
ARM GAS  C:\Users\TIMCHE~1\AppData\Local\Temp\ccOLAcjB.s 			page 19


 692:Generated_Source\PSoC4/I2C_Slave.c ****                                                                pinsDm[I2C_Slave_RX_WAKE_SDA_MOSI_PI
 693:Generated_Source\PSoC4/I2C_Slave.c **** 
 694:Generated_Source\PSoC4/I2C_Slave.c ****         I2C_Slave_SET_INP_DIS(I2C_Slave_uart_rx_wake_i2c_sda_spi_mosi_INP_DIS,
 695:Generated_Source\PSoC4/I2C_Slave.c ****                                      I2C_Slave_uart_rx_wake_i2c_sda_spi_mosi_MASK,
 696:Generated_Source\PSoC4/I2C_Slave.c ****                                      (0u != (pinsInBuf & I2C_Slave_RX_WAKE_SDA_MOSI_PIN_MASK)));
 697:Generated_Source\PSoC4/I2C_Slave.c **** 
 698:Generated_Source\PSoC4/I2C_Slave.c ****          /* Set interrupt on falling edge */
 699:Generated_Source\PSoC4/I2C_Slave.c ****         I2C_Slave_SET_INCFG_TYPE(I2C_Slave_RX_WAKE_SDA_MOSI_INTCFG_REG,
 700:Generated_Source\PSoC4/I2C_Slave.c ****                                         I2C_Slave_RX_WAKE_SDA_MOSI_INTCFG_TYPE_MASK,
 701:Generated_Source\PSoC4/I2C_Slave.c ****                                         I2C_Slave_RX_WAKE_SDA_MOSI_INTCFG_TYPE_POS,
 702:Generated_Source\PSoC4/I2C_Slave.c ****                                         I2C_Slave_INTCFG_TYPE_FALLING_EDGE);
 703:Generated_Source\PSoC4/I2C_Slave.c ****     #else
 704:Generated_Source\PSoC4/I2C_Slave.c ****     #endif /* (I2C_Slave_RX_WAKE_SDA_MOSI_PIN) */
 705:Generated_Source\PSoC4/I2C_Slave.c **** 
 706:Generated_Source\PSoC4/I2C_Slave.c ****     #if (I2C_Slave_SDA_PIN)
 707:Generated_Source\PSoC4/I2C_Slave.c ****         I2C_Slave_SET_HSIOM_SEL(I2C_Slave_SDA_HSIOM_REG,
 708:Generated_Source\PSoC4/I2C_Slave.c ****                                        I2C_Slave_SDA_HSIOM_MASK,
 709:Generated_Source\PSoC4/I2C_Slave.c ****                                        I2C_Slave_SDA_HSIOM_POS,
 710:Generated_Source\PSoC4/I2C_Slave.c ****                                         hsiomSel[I2C_Slave_SDA_PIN_INDEX]);
 711:Generated_Source\PSoC4/I2C_Slave.c **** 
 712:Generated_Source\PSoC4/I2C_Slave.c ****         I2C_Slave_i2c_sda_SetDriveMode((uint8) pinsDm[I2C_Slave_SDA_PIN_INDEX]);
 713:Generated_Source\PSoC4/I2C_Slave.c **** 
 714:Generated_Source\PSoC4/I2C_Slave.c ****     #if (!I2C_Slave_CY_SCBIP_V1)
 715:Generated_Source\PSoC4/I2C_Slave.c ****         I2C_Slave_SET_INP_DIS(I2C_Slave_i2c_sda_INP_DIS,
 716:Generated_Source\PSoC4/I2C_Slave.c ****                                      I2C_Slave_i2c_sda_MASK,
 717:Generated_Source\PSoC4/I2C_Slave.c ****                                     (0u != (pinsInBuf & I2C_Slave_SDA_PIN_MASK)));
 718:Generated_Source\PSoC4/I2C_Slave.c ****     #endif /* (!I2C_Slave_CY_SCBIP_V1) */
 719:Generated_Source\PSoC4/I2C_Slave.c ****     #endif /* (I2C_Slave_SCL_PIN) */
 720:Generated_Source\PSoC4/I2C_Slave.c **** 
 721:Generated_Source\PSoC4/I2C_Slave.c ****     #if (I2C_Slave_CTS_SCLK_PIN)
 722:Generated_Source\PSoC4/I2C_Slave.c ****         I2C_Slave_SET_HSIOM_SEL(I2C_Slave_CTS_SCLK_HSIOM_REG,
 723:Generated_Source\PSoC4/I2C_Slave.c ****                                        I2C_Slave_CTS_SCLK_HSIOM_MASK,
 724:Generated_Source\PSoC4/I2C_Slave.c ****                                        I2C_Slave_CTS_SCLK_HSIOM_POS,
 725:Generated_Source\PSoC4/I2C_Slave.c ****                                        hsiomSel[I2C_Slave_CTS_SCLK_PIN_INDEX]);
 726:Generated_Source\PSoC4/I2C_Slave.c **** 
 727:Generated_Source\PSoC4/I2C_Slave.c ****         I2C_Slave_uart_cts_spi_sclk_SetDriveMode((uint8) pinsDm[I2C_Slave_CTS_SCLK_PIN_INDEX]);
 728:Generated_Source\PSoC4/I2C_Slave.c **** 
 729:Generated_Source\PSoC4/I2C_Slave.c ****         I2C_Slave_SET_INP_DIS(I2C_Slave_uart_cts_spi_sclk_INP_DIS,
 730:Generated_Source\PSoC4/I2C_Slave.c ****                                      I2C_Slave_uart_cts_spi_sclk_MASK,
 731:Generated_Source\PSoC4/I2C_Slave.c ****                                      (0u != (pinsInBuf & I2C_Slave_CTS_SCLK_PIN_MASK)));
 732:Generated_Source\PSoC4/I2C_Slave.c ****     #endif /* (I2C_Slave_CTS_SCLK_PIN) */
 733:Generated_Source\PSoC4/I2C_Slave.c **** 
 734:Generated_Source\PSoC4/I2C_Slave.c ****     #if (I2C_Slave_RTS_SS0_PIN)
 735:Generated_Source\PSoC4/I2C_Slave.c ****         I2C_Slave_SET_HSIOM_SEL(I2C_Slave_RTS_SS0_HSIOM_REG,
 736:Generated_Source\PSoC4/I2C_Slave.c ****                                        I2C_Slave_RTS_SS0_HSIOM_MASK,
 737:Generated_Source\PSoC4/I2C_Slave.c ****                                        I2C_Slave_RTS_SS0_HSIOM_POS,
 738:Generated_Source\PSoC4/I2C_Slave.c ****                                        hsiomSel[I2C_Slave_RTS_SS0_PIN_INDEX]);
 739:Generated_Source\PSoC4/I2C_Slave.c **** 
 740:Generated_Source\PSoC4/I2C_Slave.c ****         I2C_Slave_uart_rts_spi_ss0_SetDriveMode((uint8) pinsDm[I2C_Slave_RTS_SS0_PIN_INDEX]);
 741:Generated_Source\PSoC4/I2C_Slave.c **** 
 742:Generated_Source\PSoC4/I2C_Slave.c ****         I2C_Slave_SET_INP_DIS(I2C_Slave_uart_rts_spi_ss0_INP_DIS,
 743:Generated_Source\PSoC4/I2C_Slave.c ****                                      I2C_Slave_uart_rts_spi_ss0_MASK,
 744:Generated_Source\PSoC4/I2C_Slave.c ****                                      (0u != (pinsInBuf & I2C_Slave_RTS_SS0_PIN_MASK)));
 745:Generated_Source\PSoC4/I2C_Slave.c ****     #endif /* (I2C_Slave_RTS_SS0_PIN) */
 746:Generated_Source\PSoC4/I2C_Slave.c **** 
 747:Generated_Source\PSoC4/I2C_Slave.c ****     #if (I2C_Slave_SS1_PIN)
 748:Generated_Source\PSoC4/I2C_Slave.c ****         I2C_Slave_SET_HSIOM_SEL(I2C_Slave_SS1_HSIOM_REG,
ARM GAS  C:\Users\TIMCHE~1\AppData\Local\Temp\ccOLAcjB.s 			page 20


 749:Generated_Source\PSoC4/I2C_Slave.c ****                                        I2C_Slave_SS1_HSIOM_MASK,
 750:Generated_Source\PSoC4/I2C_Slave.c ****                                        I2C_Slave_SS1_HSIOM_POS,
 751:Generated_Source\PSoC4/I2C_Slave.c ****                                        hsiomSel[I2C_Slave_SS1_PIN_INDEX]);
 752:Generated_Source\PSoC4/I2C_Slave.c **** 
 753:Generated_Source\PSoC4/I2C_Slave.c ****         I2C_Slave_spi_ss1_SetDriveMode((uint8) pinsDm[I2C_Slave_SS1_PIN_INDEX]);
 754:Generated_Source\PSoC4/I2C_Slave.c **** 
 755:Generated_Source\PSoC4/I2C_Slave.c ****         I2C_Slave_SET_INP_DIS(I2C_Slave_spi_ss1_INP_DIS,
 756:Generated_Source\PSoC4/I2C_Slave.c ****                                      I2C_Slave_spi_ss1_MASK,
 757:Generated_Source\PSoC4/I2C_Slave.c ****                                      (0u != (pinsInBuf & I2C_Slave_SS1_PIN_MASK)));
 758:Generated_Source\PSoC4/I2C_Slave.c ****     #endif /* (I2C_Slave_SS1_PIN) */
 759:Generated_Source\PSoC4/I2C_Slave.c **** 
 760:Generated_Source\PSoC4/I2C_Slave.c ****     #if (I2C_Slave_SS2_PIN)
 761:Generated_Source\PSoC4/I2C_Slave.c ****         I2C_Slave_SET_HSIOM_SEL(I2C_Slave_SS2_HSIOM_REG,
 762:Generated_Source\PSoC4/I2C_Slave.c ****                                        I2C_Slave_SS2_HSIOM_MASK,
 763:Generated_Source\PSoC4/I2C_Slave.c ****                                        I2C_Slave_SS2_HSIOM_POS,
 764:Generated_Source\PSoC4/I2C_Slave.c ****                                        hsiomSel[I2C_Slave_SS2_PIN_INDEX]);
 765:Generated_Source\PSoC4/I2C_Slave.c **** 
 766:Generated_Source\PSoC4/I2C_Slave.c ****         I2C_Slave_spi_ss2_SetDriveMode((uint8) pinsDm[I2C_Slave_SS2_PIN_INDEX]);
 767:Generated_Source\PSoC4/I2C_Slave.c **** 
 768:Generated_Source\PSoC4/I2C_Slave.c ****         I2C_Slave_SET_INP_DIS(I2C_Slave_spi_ss2_INP_DIS,
 769:Generated_Source\PSoC4/I2C_Slave.c ****                                      I2C_Slave_spi_ss2_MASK,
 770:Generated_Source\PSoC4/I2C_Slave.c ****                                      (0u != (pinsInBuf & I2C_Slave_SS2_PIN_MASK)));
 771:Generated_Source\PSoC4/I2C_Slave.c ****     #endif /* (I2C_Slave_SS2_PIN) */
 772:Generated_Source\PSoC4/I2C_Slave.c **** 
 773:Generated_Source\PSoC4/I2C_Slave.c ****     #if (I2C_Slave_SS3_PIN)
 774:Generated_Source\PSoC4/I2C_Slave.c ****         I2C_Slave_SET_HSIOM_SEL(I2C_Slave_SS3_HSIOM_REG,
 775:Generated_Source\PSoC4/I2C_Slave.c ****                                        I2C_Slave_SS3_HSIOM_MASK,
 776:Generated_Source\PSoC4/I2C_Slave.c ****                                        I2C_Slave_SS3_HSIOM_POS,
 777:Generated_Source\PSoC4/I2C_Slave.c ****                                        hsiomSel[I2C_Slave_SS3_PIN_INDEX]);
 778:Generated_Source\PSoC4/I2C_Slave.c **** 
 779:Generated_Source\PSoC4/I2C_Slave.c ****         I2C_Slave_spi_ss3_SetDriveMode((uint8) pinsDm[I2C_Slave_SS3_PIN_INDEX]);
 780:Generated_Source\PSoC4/I2C_Slave.c **** 
 781:Generated_Source\PSoC4/I2C_Slave.c ****         I2C_Slave_SET_INP_DIS(I2C_Slave_spi_ss3_INP_DIS,
 782:Generated_Source\PSoC4/I2C_Slave.c ****                                      I2C_Slave_spi_ss3_MASK,
 783:Generated_Source\PSoC4/I2C_Slave.c ****                                      (0u != (pinsInBuf & I2C_Slave_SS3_PIN_MASK)));
 784:Generated_Source\PSoC4/I2C_Slave.c ****     #endif /* (I2C_Slave_SS3_PIN) */
 785:Generated_Source\PSoC4/I2C_Slave.c ****     }
 786:Generated_Source\PSoC4/I2C_Slave.c **** 
 787:Generated_Source\PSoC4/I2C_Slave.c **** #endif /* (I2C_Slave_SCB_MODE_UNCONFIG_CONST_CFG) */
 788:Generated_Source\PSoC4/I2C_Slave.c **** 
 789:Generated_Source\PSoC4/I2C_Slave.c **** 
 790:Generated_Source\PSoC4/I2C_Slave.c **** #if (I2C_Slave_CY_SCBIP_V0 || I2C_Slave_CY_SCBIP_V1)
 791:Generated_Source\PSoC4/I2C_Slave.c ****     /*******************************************************************************
 792:Generated_Source\PSoC4/I2C_Slave.c ****     * Function Name: I2C_Slave_I2CSlaveNackGeneration
 793:Generated_Source\PSoC4/I2C_Slave.c ****     ****************************************************************************//**
 794:Generated_Source\PSoC4/I2C_Slave.c ****     *
 795:Generated_Source\PSoC4/I2C_Slave.c ****     *  Sets command to generate NACK to the address or data.
 796:Generated_Source\PSoC4/I2C_Slave.c ****     *
 797:Generated_Source\PSoC4/I2C_Slave.c ****     *******************************************************************************/
 798:Generated_Source\PSoC4/I2C_Slave.c ****     void I2C_Slave_I2CSlaveNackGeneration(void)
 799:Generated_Source\PSoC4/I2C_Slave.c ****     {
 293              		.loc 1 799 0
 294              		.cfi_startproc
 800:Generated_Source\PSoC4/I2C_Slave.c ****         /* Check for EC_AM toggle condition: EC_AM and clock stretching for address are enabled */
 801:Generated_Source\PSoC4/I2C_Slave.c ****         if ((0u != (I2C_Slave_CTRL_REG & I2C_Slave_CTRL_EC_AM_MODE)) &&
 295              		.loc 1 801 0
 296 0000 8020     		mov	r0, #128
ARM GAS  C:\Users\TIMCHE~1\AppData\Local\Temp\ccOLAcjB.s 			page 21


 297 0002 0A4B     		ldr	r3, .L27
 298 0004 4000     		lsl	r0, r0, #1
 299 0006 1A68     		ldr	r2, [r3]
 300 0008 0242     		tst	r2, r0
 301 000a 0AD0     		beq	.L23
 802:Generated_Source\PSoC4/I2C_Slave.c ****             (0u == (I2C_Slave_I2C_CTRL_REG & I2C_Slave_I2C_CTRL_S_NOT_READY_ADDR_NACK)))
 302              		.loc 1 802 0 discriminator 1
 303 000c 084A     		ldr	r2, .L27+4
 304 000e 1268     		ldr	r2, [r2]
 801:Generated_Source\PSoC4/I2C_Slave.c ****             (0u == (I2C_Slave_I2C_CTRL_REG & I2C_Slave_I2C_CTRL_S_NOT_READY_ADDR_NACK)))
 305              		.loc 1 801 0 discriminator 1
 306 0010 5204     		lsl	r2, r2, #17
 307 0012 06D4     		bmi	.L23
 803:Generated_Source\PSoC4/I2C_Slave.c ****         {
 804:Generated_Source\PSoC4/I2C_Slave.c ****             /* Toggle EC_AM before NACK generation */
 805:Generated_Source\PSoC4/I2C_Slave.c ****             I2C_Slave_CTRL_REG &= ~I2C_Slave_CTRL_EC_AM_MODE;
 308              		.loc 1 805 0
 309 0014 1A68     		ldr	r2, [r3]
 310 0016 0749     		ldr	r1, .L27+8
 311 0018 1140     		and	r1, r2
 312 001a 1960     		str	r1, [r3]
 806:Generated_Source\PSoC4/I2C_Slave.c ****             I2C_Slave_CTRL_REG |=  I2C_Slave_CTRL_EC_AM_MODE;
 313              		.loc 1 806 0
 314 001c 1A68     		ldr	r2, [r3]
 315 001e 0243     		orr	r2, r0
 316 0020 1A60     		str	r2, [r3]
 317              	.L23:
 807:Generated_Source\PSoC4/I2C_Slave.c ****         }
 808:Generated_Source\PSoC4/I2C_Slave.c **** 
 809:Generated_Source\PSoC4/I2C_Slave.c ****         I2C_Slave_I2C_SLAVE_CMD_REG = I2C_Slave_I2C_SLAVE_CMD_S_NACK;
 318              		.loc 1 809 0
 319 0022 0222     		mov	r2, #2
 320 0024 044B     		ldr	r3, .L27+12
 810:Generated_Source\PSoC4/I2C_Slave.c ****     }
 321              		.loc 1 810 0
 322              		@ sp needed
 809:Generated_Source\PSoC4/I2C_Slave.c ****     }
 323              		.loc 1 809 0
 324 0026 1A60     		str	r2, [r3]
 325              		.loc 1 810 0
 326 0028 7047     		bx	lr
 327              	.L28:
 328 002a C046     		.align	2
 329              	.L27:
 330 002c 00000640 		.word	1074135040
 331 0030 60000640 		.word	1074135136
 332 0034 FFFEFFFF 		.word	-257
 333 0038 6C000640 		.word	1074135148
 334              		.cfi_endproc
 335              	.LFE10:
 336              		.size	I2C_Slave_I2CSlaveNackGeneration, .-I2C_Slave_I2CSlaveNackGeneration
 337              		.global	I2C_Slave_customIntrHandler
 338              		.global	I2C_Slave_initVar
 339              		.bss
 340              		.align	2
 341              		.set	.LANCHOR0,. + 0
 342              		.type	I2C_Slave_initVar, %object
ARM GAS  C:\Users\TIMCHE~1\AppData\Local\Temp\ccOLAcjB.s 			page 22


 343              		.size	I2C_Slave_initVar, 1
 344              	I2C_Slave_initVar:
 345 0000 00       		.space	1
 346 0001 000000   		.space	3
 347              		.type	I2C_Slave_customIntrHandler, %object
 348              		.size	I2C_Slave_customIntrHandler, 4
 349              	I2C_Slave_customIntrHandler:
 350 0004 00000000 		.space	4
 351              		.text
 352              	.Letext0:
 353              		.file 2 "Generated_Source\\PSoC4/cytypes.h"
 354              		.file 3 "Generated_Source\\PSoC4\\I2C_Slave_I2C_PVT.h"
 355              		.file 4 "Generated_Source\\PSoC4/CyLib.h"