ARM GAS  C:\Users\TIMCHE~1\AppData\Local\Temp\ccQmtc5d.s 			page 1


   1              		.cpu cortex-m0
   2              		.fpu softvfp
   3              		.eabi_attribute 20, 1
   4              		.eabi_attribute 21, 1
   5              		.eabi_attribute 23, 3
   6              		.eabi_attribute 24, 1
   7              		.eabi_attribute 25, 1
   8              		.eabi_attribute 26, 1
   9              		.eabi_attribute 30, 4
  10              		.eabi_attribute 34, 0
  11              		.eabi_attribute 18, 4
  12              		.code	16
  13              		.file	"I2C_Slave_I2C_SLAVE.c"
  14              		.text
  15              	.Ltext0:
  16              		.cfi_sections	.debug_frame
  17              		.section	.text.I2C_Slave_I2CSlaveStatus,"ax",%progbits
  18              		.align	1
  19              		.global	I2C_Slave_I2CSlaveStatus
  20              		.code	16
  21              		.thumb_func
  22              		.type	I2C_Slave_I2CSlaveStatus, %function
  23              	I2C_Slave_I2CSlaveStatus:
  24              	.LFB0:
  25              		.file 1 "Generated_Source\\PSoC4\\I2C_Slave_I2C_SLAVE.c"
   1:Generated_Source\PSoC4/I2C_Slave_I2C_SLAVE.c **** /***************************************************************************//**
   2:Generated_Source\PSoC4/I2C_Slave_I2C_SLAVE.c **** * \file I2C_Slave_I2C_SLAVE.c
   3:Generated_Source\PSoC4/I2C_Slave_I2C_SLAVE.c **** * \version 3.20
   4:Generated_Source\PSoC4/I2C_Slave_I2C_SLAVE.c **** *
   5:Generated_Source\PSoC4/I2C_Slave_I2C_SLAVE.c **** * \brief
   6:Generated_Source\PSoC4/I2C_Slave_I2C_SLAVE.c **** *  This file provides the source code to the API for the SCB Component in
   7:Generated_Source\PSoC4/I2C_Slave_I2C_SLAVE.c **** *  I2C Slave mode.
   8:Generated_Source\PSoC4/I2C_Slave_I2C_SLAVE.c **** *
   9:Generated_Source\PSoC4/I2C_Slave_I2C_SLAVE.c **** * Note:
  10:Generated_Source\PSoC4/I2C_Slave_I2C_SLAVE.c **** *
  11:Generated_Source\PSoC4/I2C_Slave_I2C_SLAVE.c **** *******************************************************************************
  12:Generated_Source\PSoC4/I2C_Slave_I2C_SLAVE.c **** * \copyright
  13:Generated_Source\PSoC4/I2C_Slave_I2C_SLAVE.c **** * Copyright 2013-2016, Cypress Semiconductor Corporation.  All rights reserved.
  14:Generated_Source\PSoC4/I2C_Slave_I2C_SLAVE.c **** * You may use this file only in accordance with the license, terms, conditions,
  15:Generated_Source\PSoC4/I2C_Slave_I2C_SLAVE.c **** * disclaimers, and limitations in the end user license agreement accompanying
  16:Generated_Source\PSoC4/I2C_Slave_I2C_SLAVE.c **** * the software package with which this file was provided.
  17:Generated_Source\PSoC4/I2C_Slave_I2C_SLAVE.c **** *******************************************************************************/
  18:Generated_Source\PSoC4/I2C_Slave_I2C_SLAVE.c **** 
  19:Generated_Source\PSoC4/I2C_Slave_I2C_SLAVE.c **** #include "I2C_Slave_I2C_PVT.h"
  20:Generated_Source\PSoC4/I2C_Slave_I2C_SLAVE.c **** 
  21:Generated_Source\PSoC4/I2C_Slave_I2C_SLAVE.c **** #if(I2C_Slave_I2C_SLAVE_CONST)
  22:Generated_Source\PSoC4/I2C_Slave_I2C_SLAVE.c **** 
  23:Generated_Source\PSoC4/I2C_Slave_I2C_SLAVE.c **** /***************************************
  24:Generated_Source\PSoC4/I2C_Slave_I2C_SLAVE.c **** *      I2C Slave Private Vars
  25:Generated_Source\PSoC4/I2C_Slave_I2C_SLAVE.c **** ***************************************/
  26:Generated_Source\PSoC4/I2C_Slave_I2C_SLAVE.c **** 
  27:Generated_Source\PSoC4/I2C_Slave_I2C_SLAVE.c **** volatile uint8 I2C_Slave_slStatus;          /* Slave Status */
  28:Generated_Source\PSoC4/I2C_Slave_I2C_SLAVE.c **** 
  29:Generated_Source\PSoC4/I2C_Slave_I2C_SLAVE.c **** /* Receive buffer variables */
  30:Generated_Source\PSoC4/I2C_Slave_I2C_SLAVE.c **** volatile uint8 * I2C_Slave_slWrBufPtr;      /* Pointer to Receive buffer  */
  31:Generated_Source\PSoC4/I2C_Slave_I2C_SLAVE.c **** volatile uint32  I2C_Slave_slWrBufSize;     /* Slave Receive buffer size  */
  32:Generated_Source\PSoC4/I2C_Slave_I2C_SLAVE.c **** volatile uint32  I2C_Slave_slWrBufIndex;    /* Slave Receive buffer Index */
ARM GAS  C:\Users\TIMCHE~1\AppData\Local\Temp\ccQmtc5d.s 			page 2


  33:Generated_Source\PSoC4/I2C_Slave_I2C_SLAVE.c **** 
  34:Generated_Source\PSoC4/I2C_Slave_I2C_SLAVE.c **** /* Transmit buffer variables */
  35:Generated_Source\PSoC4/I2C_Slave_I2C_SLAVE.c **** volatile uint8 * I2C_Slave_slRdBufPtr;      /* Pointer to Transmit buffer  */
  36:Generated_Source\PSoC4/I2C_Slave_I2C_SLAVE.c **** volatile uint32  I2C_Slave_slRdBufSize;     /* Slave Transmit buffer size  */
  37:Generated_Source\PSoC4/I2C_Slave_I2C_SLAVE.c **** volatile uint32  I2C_Slave_slRdBufIndex;    /* Slave Transmit buffer Index */
  38:Generated_Source\PSoC4/I2C_Slave_I2C_SLAVE.c **** volatile uint32  I2C_Slave_slRdBufIndexTmp; /* Slave Transmit buffer Index Tmp */
  39:Generated_Source\PSoC4/I2C_Slave_I2C_SLAVE.c **** volatile uint8   I2C_Slave_slOverFlowCount; /* Slave Transmit Overflow counter */
  40:Generated_Source\PSoC4/I2C_Slave_I2C_SLAVE.c **** 
  41:Generated_Source\PSoC4/I2C_Slave_I2C_SLAVE.c **** #if (I2C_Slave_I2C_CUSTOM_ADDRESS_HANDLER_CONST)
  42:Generated_Source\PSoC4/I2C_Slave_I2C_SLAVE.c **** 
  43:Generated_Source\PSoC4/I2C_Slave_I2C_SLAVE.c ****     uint32 (*I2C_Slave_customAddressHandler)(void) = NULL;
  44:Generated_Source\PSoC4/I2C_Slave_I2C_SLAVE.c **** 
  45:Generated_Source\PSoC4/I2C_Slave_I2C_SLAVE.c ****     /*******************************************************************************
  46:Generated_Source\PSoC4/I2C_Slave_I2C_SLAVE.c ****     * Function Name: I2C_Slave_SetI2cAddressCustomInterruptHandler
  47:Generated_Source\PSoC4/I2C_Slave_I2C_SLAVE.c ****     ****************************************************************************//**
  48:Generated_Source\PSoC4/I2C_Slave_I2C_SLAVE.c ****     *
  49:Generated_Source\PSoC4/I2C_Slave_I2C_SLAVE.c ****     *  Registers a function to be called by the I2C slave interrupt handler during
  50:Generated_Source\PSoC4/I2C_Slave_I2C_SLAVE.c ****     *  the I2C interrupt address processing. This function should be used when
  51:Generated_Source\PSoC4/I2C_Slave_I2C_SLAVE.c ****     *  multiple I2C addresses need to be decoded or general call address supported.
  52:Generated_Source\PSoC4/I2C_Slave_I2C_SLAVE.c ****     *  The registered function must return decision whether to ACK or NACK address.
  53:Generated_Source\PSoC4/I2C_Slave_I2C_SLAVE.c ****     *  Only one I2C address handler is supported, which is the function provided
  54:Generated_Source\PSoC4/I2C_Slave_I2C_SLAVE.c ****     *  by the most recent call.
  55:Generated_Source\PSoC4/I2C_Slave_I2C_SLAVE.c ****     *  At initialization time no I2C address handler is registered.
  56:Generated_Source\PSoC4/I2C_Slave_I2C_SLAVE.c ****     *
  57:Generated_Source\PSoC4/I2C_Slave_I2C_SLAVE.c ****     *  \param func: Pointer to the function to register.
  58:Generated_Source\PSoC4/I2C_Slave_I2C_SLAVE.c ****     *   The value NULL indicates to remove the current custom interrupt
  59:Generated_Source\PSoC4/I2C_Slave_I2C_SLAVE.c ****     *   handler.
  60:Generated_Source\PSoC4/I2C_Slave_I2C_SLAVE.c ****     *   The registered function must return decision whether to ACK or NACK 
  61:Generated_Source\PSoC4/I2C_Slave_I2C_SLAVE.c ****     *   accepted address: 0 – ACK, other values – NACK. The registered 
  62:Generated_Source\PSoC4/I2C_Slave_I2C_SLAVE.c ****     *   callback function does not perform the ACK/NACK, this operation is 
  63:Generated_Source\PSoC4/I2C_Slave_I2C_SLAVE.c ****     *   performed in the I2C ISR.
  64:Generated_Source\PSoC4/I2C_Slave_I2C_SLAVE.c ****     *
  65:Generated_Source\PSoC4/I2C_Slave_I2C_SLAVE.c ****     *******************************************************************************/
  66:Generated_Source\PSoC4/I2C_Slave_I2C_SLAVE.c ****     void I2C_Slave_SetI2cAddressCustomInterruptHandler(uint32 (*func) (void))
  67:Generated_Source\PSoC4/I2C_Slave_I2C_SLAVE.c ****     {
  68:Generated_Source\PSoC4/I2C_Slave_I2C_SLAVE.c ****         /* Register custom address handler */
  69:Generated_Source\PSoC4/I2C_Slave_I2C_SLAVE.c ****         I2C_Slave_customAddressHandler = func;
  70:Generated_Source\PSoC4/I2C_Slave_I2C_SLAVE.c ****     }
  71:Generated_Source\PSoC4/I2C_Slave_I2C_SLAVE.c **** #endif /* (I2C_Slave_I2C_CUSTOM_ADDRESS_HANDLER_CONST) */
  72:Generated_Source\PSoC4/I2C_Slave_I2C_SLAVE.c **** 
  73:Generated_Source\PSoC4/I2C_Slave_I2C_SLAVE.c **** 
  74:Generated_Source\PSoC4/I2C_Slave_I2C_SLAVE.c **** /*******************************************************************************
  75:Generated_Source\PSoC4/I2C_Slave_I2C_SLAVE.c **** * Function Name: I2C_Slave_I2CSlaveStatus
  76:Generated_Source\PSoC4/I2C_Slave_I2C_SLAVE.c **** ****************************************************************************//**
  77:Generated_Source\PSoC4/I2C_Slave_I2C_SLAVE.c **** *
  78:Generated_Source\PSoC4/I2C_Slave_I2C_SLAVE.c **** *  Returns the I2C slave's communication status.
  79:Generated_Source\PSoC4/I2C_Slave_I2C_SLAVE.c **** *
  80:Generated_Source\PSoC4/I2C_Slave_I2C_SLAVE.c **** * \return
  81:Generated_Source\PSoC4/I2C_Slave_I2C_SLAVE.c **** *  Current status of I2C slave.
  82:Generated_Source\PSoC4/I2C_Slave_I2C_SLAVE.c **** *  This status incorporates read and write status constants. 
  83:Generated_Source\PSoC4/I2C_Slave_I2C_SLAVE.c **** *  Each constant is a bit field value. The value returned may have multiple 
  84:Generated_Source\PSoC4/I2C_Slave_I2C_SLAVE.c **** *  bits set to indicate the status of the read or write transfer.
  85:Generated_Source\PSoC4/I2C_Slave_I2C_SLAVE.c **** *   - I2C_Slave_I2C_SSTAT_RD_CMPLT - Slave read transfer complete. 
  86:Generated_Source\PSoC4/I2C_Slave_I2C_SLAVE.c **** *     Set when master indicates it is done reading by sending a NAK.
  87:Generated_Source\PSoC4/I2C_Slave_I2C_SLAVE.c **** *     The read error condition status bit must be checked to ensure that 
  88:Generated_Source\PSoC4/I2C_Slave_I2C_SLAVE.c **** *     the read transfer was completed successfully.
  89:Generated_Source\PSoC4/I2C_Slave_I2C_SLAVE.c **** *   - I2C_Slave_I2C_SSTAT_RD_BUSY - Slave read transfer is in progress. 
ARM GAS  C:\Users\TIMCHE~1\AppData\Local\Temp\ccQmtc5d.s 			page 3


  90:Generated_Source\PSoC4/I2C_Slave_I2C_SLAVE.c **** *     Set when master addresses slave with a read, cleared when 
  91:Generated_Source\PSoC4/I2C_Slave_I2C_SLAVE.c **** *    I2C_Slave_I2C_SSTAT_RD_CMPLT is set.
  92:Generated_Source\PSoC4/I2C_Slave_I2C_SLAVE.c **** *   - I2C_Slave_I2C_SSTAT_RD_OVFL - Master attempted to read more bytes
  93:Generated_Source\PSoC4/I2C_Slave_I2C_SLAVE.c **** *     than are in buffer. Slave continually returns 0xFF byte in this case.
  94:Generated_Source\PSoC4/I2C_Slave_I2C_SLAVE.c **** *   - I2C_Slave_I2C_SSTAT_RD_ERR - Slave captured error on the bus during 
  95:Generated_Source\PSoC4/I2C_Slave_I2C_SLAVE.c **** *     a read transfer. The sources of error are: misplaced Start or Stop 
  96:Generated_Source\PSoC4/I2C_Slave_I2C_SLAVE.c **** *     condition or lost arbitration while slave drives SDA.
  97:Generated_Source\PSoC4/I2C_Slave_I2C_SLAVE.c **** *   - I2C_Slave_I2C_SSTAT_WR_CMPLT - Slave write transfer complete. 
  98:Generated_Source\PSoC4/I2C_Slave_I2C_SLAVE.c **** *     Set at reception of a Stop or ReStart condition. The write error condition
  99:Generated_Source\PSoC4/I2C_Slave_I2C_SLAVE.c **** *     status bit must be checked to ensure that write transfer was completed
 100:Generated_Source\PSoC4/I2C_Slave_I2C_SLAVE.c **** *     successfully.
 101:Generated_Source\PSoC4/I2C_Slave_I2C_SLAVE.c **** *   - I2C_Slave_I2C_SSTAT_WR_BUSY - Slave write transfer is in progress. 
 102:Generated_Source\PSoC4/I2C_Slave_I2C_SLAVE.c **** *     Set when the master addresses the slave with a write, cleared when 
 103:Generated_Source\PSoC4/I2C_Slave_I2C_SLAVE.c **** *    I2C_Slave_I2C_SSTAT_WR_CMPLT is set.
 104:Generated_Source\PSoC4/I2C_Slave_I2C_SLAVE.c **** *   - I2C_Slave_I2C_SSTAT_WR_OVFL - Master attempted to write past end of 
 105:Generated_Source\PSoC4/I2C_Slave_I2C_SLAVE.c **** *     buffer. Further bytes are ignored.
 106:Generated_Source\PSoC4/I2C_Slave_I2C_SLAVE.c **** *   - I2C_Slave_I2C_SSTAT_WR_ERR - Slave captured error on the bus during
 107:Generated_Source\PSoC4/I2C_Slave_I2C_SLAVE.c **** *     write transfer. The sources of error are: misplaced Start or Stop condition
 108:Generated_Source\PSoC4/I2C_Slave_I2C_SLAVE.c **** *     or lost arbitration while slave drives SDA.
 109:Generated_Source\PSoC4/I2C_Slave_I2C_SLAVE.c **** *     The write buffer may contain invalid bytes or part of the data transfer when 
 110:Generated_Source\PSoC4/I2C_Slave_I2C_SLAVE.c **** *     I2C_Slave_I2C_SSTAT_WR_ERR is set. It is recommended to discard write 
 111:Generated_Source\PSoC4/I2C_Slave_I2C_SLAVE.c **** *     buffer content in this case.
 112:Generated_Source\PSoC4/I2C_Slave_I2C_SLAVE.c **** *
 113:Generated_Source\PSoC4/I2C_Slave_I2C_SLAVE.c **** * \globalvars
 114:Generated_Source\PSoC4/I2C_Slave_I2C_SLAVE.c **** *  I2C_Slave_slStatus  - used to store current status of I2C slave.
 115:Generated_Source\PSoC4/I2C_Slave_I2C_SLAVE.c **** *
 116:Generated_Source\PSoC4/I2C_Slave_I2C_SLAVE.c **** *******************************************************************************/
 117:Generated_Source\PSoC4/I2C_Slave_I2C_SLAVE.c **** uint32 I2C_Slave_I2CSlaveStatus(void)
 118:Generated_Source\PSoC4/I2C_Slave_I2C_SLAVE.c **** {
  26              		.loc 1 118 0
  27              		.cfi_startproc
 119:Generated_Source\PSoC4/I2C_Slave_I2C_SLAVE.c ****     return((uint32) I2C_Slave_slStatus);
  28              		.loc 1 119 0
  29 0000 014B     		ldr	r3, .L2
 120:Generated_Source\PSoC4/I2C_Slave_I2C_SLAVE.c **** }
  30              		.loc 1 120 0
  31              		@ sp needed
 119:Generated_Source\PSoC4/I2C_Slave_I2C_SLAVE.c ****     return((uint32) I2C_Slave_slStatus);
  32              		.loc 1 119 0
  33 0002 1878     		ldrb	r0, [r3]
  34 0004 C0B2     		uxtb	r0, r0
  35              		.loc 1 120 0
  36 0006 7047     		bx	lr
  37              	.L3:
  38              		.align	2
  39              	.L2:
  40 0008 00000000 		.word	I2C_Slave_slStatus
  41              		.cfi_endproc
  42              	.LFE0:
  43              		.size	I2C_Slave_I2CSlaveStatus, .-I2C_Slave_I2CSlaveStatus
  44              		.section	.text.I2C_Slave_I2CSlaveClearReadStatus,"ax",%progbits
  45              		.align	1
  46              		.global	I2C_Slave_I2CSlaveClearReadStatus
  47              		.code	16
  48              		.thumb_func
  49              		.type	I2C_Slave_I2CSlaveClearReadStatus, %function
  50              	I2C_Slave_I2CSlaveClearReadStatus:
ARM GAS  C:\Users\TIMCHE~1\AppData\Local\Temp\ccQmtc5d.s 			page 4


  51              	.LFB1:
 121:Generated_Source\PSoC4/I2C_Slave_I2C_SLAVE.c **** 
 122:Generated_Source\PSoC4/I2C_Slave_I2C_SLAVE.c **** 
 123:Generated_Source\PSoC4/I2C_Slave_I2C_SLAVE.c **** /*******************************************************************************
 124:Generated_Source\PSoC4/I2C_Slave_I2C_SLAVE.c **** * Function Name: I2C_Slave_I2CSlaveClearReadStatus
 125:Generated_Source\PSoC4/I2C_Slave_I2C_SLAVE.c **** ****************************************************************************//**
 126:Generated_Source\PSoC4/I2C_Slave_I2C_SLAVE.c **** *
 127:Generated_Source\PSoC4/I2C_Slave_I2C_SLAVE.c **** *  Clears the read status flags and returns their values. No other status flags
 128:Generated_Source\PSoC4/I2C_Slave_I2C_SLAVE.c **** *  are affected.
 129:Generated_Source\PSoC4/I2C_Slave_I2C_SLAVE.c **** *
 130:Generated_Source\PSoC4/I2C_Slave_I2C_SLAVE.c **** * \return
 131:Generated_Source\PSoC4/I2C_Slave_I2C_SLAVE.c **** *  Current read status of slave. See the SCB_I2CSlaveStatus() function for 
 132:Generated_Source\PSoC4/I2C_Slave_I2C_SLAVE.c **** *  constants.
 133:Generated_Source\PSoC4/I2C_Slave_I2C_SLAVE.c **** *
 134:Generated_Source\PSoC4/I2C_Slave_I2C_SLAVE.c **** * \sideeffect
 135:Generated_Source\PSoC4/I2C_Slave_I2C_SLAVE.c **** *  This function does not clear I2C_Slave_I2C_SSTAT_RD_BUSY.
 136:Generated_Source\PSoC4/I2C_Slave_I2C_SLAVE.c **** *
 137:Generated_Source\PSoC4/I2C_Slave_I2C_SLAVE.c **** * \globalvars
 138:Generated_Source\PSoC4/I2C_Slave_I2C_SLAVE.c **** *  I2C_Slave_slStatus  - used to store current status of I2C slave.
 139:Generated_Source\PSoC4/I2C_Slave_I2C_SLAVE.c **** *
 140:Generated_Source\PSoC4/I2C_Slave_I2C_SLAVE.c **** *******************************************************************************/
 141:Generated_Source\PSoC4/I2C_Slave_I2C_SLAVE.c **** uint32 I2C_Slave_I2CSlaveClearReadStatus(void)
 142:Generated_Source\PSoC4/I2C_Slave_I2C_SLAVE.c **** {
  52              		.loc 1 142 0
  53              		.cfi_startproc
  54 0000 10B5     		push	{r4, lr}
  55              		.cfi_def_cfa_offset 8
  56              		.cfi_offset 4, -8
  57              		.cfi_offset 14, -4
 143:Generated_Source\PSoC4/I2C_Slave_I2C_SLAVE.c ****     uint32 status;
 144:Generated_Source\PSoC4/I2C_Slave_I2C_SLAVE.c **** 
 145:Generated_Source\PSoC4/I2C_Slave_I2C_SLAVE.c ****     I2C_Slave_DisableInt();  /* Lock from interruption */
  58              		.loc 1 145 0
  59 0002 0520     		mov	r0, #5
  60 0004 FFF7FEFF 		bl	CyIntDisable
  61              	.LVL0:
 146:Generated_Source\PSoC4/I2C_Slave_I2C_SLAVE.c **** 
 147:Generated_Source\PSoC4/I2C_Slave_I2C_SLAVE.c ****     /* Mask of transfer complete flag and error status */
 148:Generated_Source\PSoC4/I2C_Slave_I2C_SLAVE.c ****     status = ((uint32) I2C_Slave_slStatus & I2C_Slave_I2C_SSTAT_RD_MASK);
 149:Generated_Source\PSoC4/I2C_Slave_I2C_SLAVE.c ****     I2C_Slave_slStatus &= (uint8) ~I2C_Slave_I2C_SSTAT_RD_CLEAR;
  62              		.loc 1 149 0
  63 0008 0D21     		mov	r1, #13
 148:Generated_Source\PSoC4/I2C_Slave_I2C_SLAVE.c ****     I2C_Slave_slStatus &= (uint8) ~I2C_Slave_I2C_SSTAT_RD_CLEAR;
  64              		.loc 1 148 0
  65 000a 064B     		ldr	r3, .L5
 150:Generated_Source\PSoC4/I2C_Slave_I2C_SLAVE.c **** 
 151:Generated_Source\PSoC4/I2C_Slave_I2C_SLAVE.c ****     I2C_Slave_EnableInt();   /* Release lock */
 152:Generated_Source\PSoC4/I2C_Slave_I2C_SLAVE.c **** 
 153:Generated_Source\PSoC4/I2C_Slave_I2C_SLAVE.c ****     return(status);
 154:Generated_Source\PSoC4/I2C_Slave_I2C_SLAVE.c **** }
  66              		.loc 1 154 0
  67              		@ sp needed
 148:Generated_Source\PSoC4/I2C_Slave_I2C_SLAVE.c ****     I2C_Slave_slStatus &= (uint8) ~I2C_Slave_I2C_SSTAT_RD_CLEAR;
  68              		.loc 1 148 0
  69 000c 1878     		ldrb	r0, [r3]
 149:Generated_Source\PSoC4/I2C_Slave_I2C_SLAVE.c **** 
  70              		.loc 1 149 0
ARM GAS  C:\Users\TIMCHE~1\AppData\Local\Temp\ccQmtc5d.s 			page 5


  71 000e 1A78     		ldrb	r2, [r3]
 148:Generated_Source\PSoC4/I2C_Slave_I2C_SLAVE.c ****     I2C_Slave_slStatus &= (uint8) ~I2C_Slave_I2C_SSTAT_RD_CLEAR;
  72              		.loc 1 148 0
  73 0010 C4B2     		uxtb	r4, r0
  74              	.LVL1:
 149:Generated_Source\PSoC4/I2C_Slave_I2C_SLAVE.c **** 
  75              		.loc 1 149 0
  76 0012 8A43     		bic	r2, r1
 151:Generated_Source\PSoC4/I2C_Slave_I2C_SLAVE.c **** 
  77              		.loc 1 151 0
  78 0014 0520     		mov	r0, #5
 149:Generated_Source\PSoC4/I2C_Slave_I2C_SLAVE.c **** 
  79              		.loc 1 149 0
  80 0016 1A70     		strb	r2, [r3]
 151:Generated_Source\PSoC4/I2C_Slave_I2C_SLAVE.c **** 
  81              		.loc 1 151 0
  82 0018 FFF7FEFF 		bl	CyIntEnable
  83              	.LVL2:
 148:Generated_Source\PSoC4/I2C_Slave_I2C_SLAVE.c ****     I2C_Slave_slStatus &= (uint8) ~I2C_Slave_I2C_SSTAT_RD_CLEAR;
  84              		.loc 1 148 0
  85 001c 0F20     		mov	r0, #15
  86 001e 2040     		and	r0, r4
  87              	.LVL3:
  88              		.loc 1 154 0
  89 0020 10BD     		pop	{r4, pc}
  90              	.L6:
  91 0022 C046     		.align	2
  92              	.L5:
  93 0024 00000000 		.word	I2C_Slave_slStatus
  94              		.cfi_endproc
  95              	.LFE1:
  96              		.size	I2C_Slave_I2CSlaveClearReadStatus, .-I2C_Slave_I2CSlaveClearReadStatus
  97              		.section	.text.I2C_Slave_I2CSlaveClearWriteStatus,"ax",%progbits
  98              		.align	1
  99              		.global	I2C_Slave_I2CSlaveClearWriteStatus
 100              		.code	16
 101              		.thumb_func
 102              		.type	I2C_Slave_I2CSlaveClearWriteStatus, %function
 103              	I2C_Slave_I2CSlaveClearWriteStatus:
 104              	.LFB2:
 155:Generated_Source\PSoC4/I2C_Slave_I2C_SLAVE.c **** 
 156:Generated_Source\PSoC4/I2C_Slave_I2C_SLAVE.c **** 
 157:Generated_Source\PSoC4/I2C_Slave_I2C_SLAVE.c **** /*******************************************************************************
 158:Generated_Source\PSoC4/I2C_Slave_I2C_SLAVE.c **** * Function Name: I2C_Slave_I2CSlaveClearWriteStatus
 159:Generated_Source\PSoC4/I2C_Slave_I2C_SLAVE.c **** ****************************************************************************//**
 160:Generated_Source\PSoC4/I2C_Slave_I2C_SLAVE.c **** *
 161:Generated_Source\PSoC4/I2C_Slave_I2C_SLAVE.c **** *  Clears the write status flags and returns their values. No other status flags
 162:Generated_Source\PSoC4/I2C_Slave_I2C_SLAVE.c **** *  are affected.
 163:Generated_Source\PSoC4/I2C_Slave_I2C_SLAVE.c **** *
 164:Generated_Source\PSoC4/I2C_Slave_I2C_SLAVE.c **** * \return
 165:Generated_Source\PSoC4/I2C_Slave_I2C_SLAVE.c **** *  Current write status of slave. See the SCB_I2CSlaveStatus() function 
 166:Generated_Source\PSoC4/I2C_Slave_I2C_SLAVE.c **** *  for constants.
 167:Generated_Source\PSoC4/I2C_Slave_I2C_SLAVE.c **** *
 168:Generated_Source\PSoC4/I2C_Slave_I2C_SLAVE.c **** * \sideeffect
 169:Generated_Source\PSoC4/I2C_Slave_I2C_SLAVE.c **** *  This function does not clear I2C_Slave_I2C_SSTAT_WR_BUSY.*
 170:Generated_Source\PSoC4/I2C_Slave_I2C_SLAVE.c **** *
 171:Generated_Source\PSoC4/I2C_Slave_I2C_SLAVE.c **** * \globalvars
ARM GAS  C:\Users\TIMCHE~1\AppData\Local\Temp\ccQmtc5d.s 			page 6


 172:Generated_Source\PSoC4/I2C_Slave_I2C_SLAVE.c **** *  I2C_Slave_slStatus  - used to store current status of I2C slave.
 173:Generated_Source\PSoC4/I2C_Slave_I2C_SLAVE.c **** *
 174:Generated_Source\PSoC4/I2C_Slave_I2C_SLAVE.c **** *******************************************************************************/
 175:Generated_Source\PSoC4/I2C_Slave_I2C_SLAVE.c **** uint32 I2C_Slave_I2CSlaveClearWriteStatus(void)
 176:Generated_Source\PSoC4/I2C_Slave_I2C_SLAVE.c **** {
 105              		.loc 1 176 0
 106              		.cfi_startproc
 107 0000 10B5     		push	{r4, lr}
 108              		.cfi_def_cfa_offset 8
 109              		.cfi_offset 4, -8
 110              		.cfi_offset 14, -4
 177:Generated_Source\PSoC4/I2C_Slave_I2C_SLAVE.c ****     uint32 status;
 178:Generated_Source\PSoC4/I2C_Slave_I2C_SLAVE.c **** 
 179:Generated_Source\PSoC4/I2C_Slave_I2C_SLAVE.c ****     I2C_Slave_DisableInt();  /* Lock from interruption */
 111              		.loc 1 179 0
 112 0002 0520     		mov	r0, #5
 113 0004 FFF7FEFF 		bl	CyIntDisable
 114              	.LVL4:
 180:Generated_Source\PSoC4/I2C_Slave_I2C_SLAVE.c **** 
 181:Generated_Source\PSoC4/I2C_Slave_I2C_SLAVE.c ****     /* Mask of transfer complete flag and Error status */
 182:Generated_Source\PSoC4/I2C_Slave_I2C_SLAVE.c ****     status = ((uint32) I2C_Slave_slStatus & I2C_Slave_I2C_SSTAT_WR_MASK);
 183:Generated_Source\PSoC4/I2C_Slave_I2C_SLAVE.c ****     I2C_Slave_slStatus &= (uint8) ~I2C_Slave_I2C_SSTAT_WR_CLEAR;
 115              		.loc 1 183 0
 116 0008 2F22     		mov	r2, #47
 182:Generated_Source\PSoC4/I2C_Slave_I2C_SLAVE.c ****     I2C_Slave_slStatus &= (uint8) ~I2C_Slave_I2C_SSTAT_WR_CLEAR;
 117              		.loc 1 182 0
 118 000a 064B     		ldr	r3, .L8
 184:Generated_Source\PSoC4/I2C_Slave_I2C_SLAVE.c **** 
 185:Generated_Source\PSoC4/I2C_Slave_I2C_SLAVE.c ****     I2C_Slave_EnableInt();   /* Release lock */
 119              		.loc 1 185 0
 120 000c 0520     		mov	r0, #5
 182:Generated_Source\PSoC4/I2C_Slave_I2C_SLAVE.c ****     I2C_Slave_slStatus &= (uint8) ~I2C_Slave_I2C_SSTAT_WR_CLEAR;
 121              		.loc 1 182 0
 122 000e 1C78     		ldrb	r4, [r3]
 183:Generated_Source\PSoC4/I2C_Slave_I2C_SLAVE.c **** 
 123              		.loc 1 183 0
 124 0010 1978     		ldrb	r1, [r3]
 182:Generated_Source\PSoC4/I2C_Slave_I2C_SLAVE.c ****     I2C_Slave_slStatus &= (uint8) ~I2C_Slave_I2C_SSTAT_WR_CLEAR;
 125              		.loc 1 182 0
 126 0012 E4B2     		uxtb	r4, r4
 127              	.LVL5:
 183:Generated_Source\PSoC4/I2C_Slave_I2C_SLAVE.c **** 
 128              		.loc 1 183 0
 129 0014 0A40     		and	r2, r1
 130 0016 1A70     		strb	r2, [r3]
 131              		.loc 1 185 0
 132 0018 FFF7FEFF 		bl	CyIntEnable
 133              	.LVL6:
 182:Generated_Source\PSoC4/I2C_Slave_I2C_SLAVE.c ****     I2C_Slave_slStatus &= (uint8) ~I2C_Slave_I2C_SSTAT_WR_CLEAR;
 134              		.loc 1 182 0
 135 001c 0F23     		mov	r3, #15
 136 001e 201C     		mov	r0, r4
 186:Generated_Source\PSoC4/I2C_Slave_I2C_SLAVE.c **** 
 187:Generated_Source\PSoC4/I2C_Slave_I2C_SLAVE.c ****     return(status);
 188:Generated_Source\PSoC4/I2C_Slave_I2C_SLAVE.c **** }
 137              		.loc 1 188 0
 138              		@ sp needed
ARM GAS  C:\Users\TIMCHE~1\AppData\Local\Temp\ccQmtc5d.s 			page 7


 182:Generated_Source\PSoC4/I2C_Slave_I2C_SLAVE.c ****     I2C_Slave_slStatus &= (uint8) ~I2C_Slave_I2C_SSTAT_WR_CLEAR;
 139              		.loc 1 182 0
 140 0020 9843     		bic	r0, r3
 141              	.LVL7:
 142              		.loc 1 188 0
 143 0022 10BD     		pop	{r4, pc}
 144              	.L9:
 145              		.align	2
 146              	.L8:
 147 0024 00000000 		.word	I2C_Slave_slStatus
 148              		.cfi_endproc
 149              	.LFE2:
 150              		.size	I2C_Slave_I2CSlaveClearWriteStatus, .-I2C_Slave_I2CSlaveClearWriteStatus
 151              		.section	.text.I2C_Slave_I2CSlaveSetAddress,"ax",%progbits
 152              		.align	1
 153              		.global	I2C_Slave_I2CSlaveSetAddress
 154              		.code	16
 155              		.thumb_func
 156              		.type	I2C_Slave_I2CSlaveSetAddress, %function
 157              	I2C_Slave_I2CSlaveSetAddress:
 158              	.LFB3:
 189:Generated_Source\PSoC4/I2C_Slave_I2C_SLAVE.c **** 
 190:Generated_Source\PSoC4/I2C_Slave_I2C_SLAVE.c **** 
 191:Generated_Source\PSoC4/I2C_Slave_I2C_SLAVE.c **** /*******************************************************************************
 192:Generated_Source\PSoC4/I2C_Slave_I2C_SLAVE.c **** * Function Name: I2C_Slave_I2CSlaveSetAddress
 193:Generated_Source\PSoC4/I2C_Slave_I2C_SLAVE.c **** ****************************************************************************//**
 194:Generated_Source\PSoC4/I2C_Slave_I2C_SLAVE.c **** *
 195:Generated_Source\PSoC4/I2C_Slave_I2C_SLAVE.c **** * Sets the I2C slave address.
 196:Generated_Source\PSoC4/I2C_Slave_I2C_SLAVE.c **** *
 197:Generated_Source\PSoC4/I2C_Slave_I2C_SLAVE.c **** * \param address: I2C slave address for the primary device.
 198:Generated_Source\PSoC4/I2C_Slave_I2C_SLAVE.c **** *  This address is the 7-bit right-justified slave address and does not 
 199:Generated_Source\PSoC4/I2C_Slave_I2C_SLAVE.c **** *  include the R/W bit.
 200:Generated_Source\PSoC4/I2C_Slave_I2C_SLAVE.c **** *  The address value is not checked to see if it violates the I2C spec. 
 201:Generated_Source\PSoC4/I2C_Slave_I2C_SLAVE.c **** *  The preferred addresses are between 8 and 120 (0x08 to 0x78).
 202:Generated_Source\PSoC4/I2C_Slave_I2C_SLAVE.c **** *
 203:Generated_Source\PSoC4/I2C_Slave_I2C_SLAVE.c **** *******************************************************************************/
 204:Generated_Source\PSoC4/I2C_Slave_I2C_SLAVE.c **** void I2C_Slave_I2CSlaveSetAddress(uint32 address)
 205:Generated_Source\PSoC4/I2C_Slave_I2C_SLAVE.c **** {
 159              		.loc 1 205 0
 160              		.cfi_startproc
 161              	.LVL8:
 206:Generated_Source\PSoC4/I2C_Slave_I2C_SLAVE.c ****     uint32 matchReg;
 207:Generated_Source\PSoC4/I2C_Slave_I2C_SLAVE.c **** 
 208:Generated_Source\PSoC4/I2C_Slave_I2C_SLAVE.c ****     matchReg = I2C_Slave_RX_MATCH_REG;
 209:Generated_Source\PSoC4/I2C_Slave_I2C_SLAVE.c **** 
 210:Generated_Source\PSoC4/I2C_Slave_I2C_SLAVE.c ****     matchReg &= ((uint32) ~I2C_Slave_RX_MATCH_ADDR_MASK); /* Clear address bits */
 162              		.loc 1 210 0
 163 0000 FF22     		mov	r2, #255
 208:Generated_Source\PSoC4/I2C_Slave_I2C_SLAVE.c **** 
 164              		.loc 1 208 0
 165 0002 0449     		ldr	r1, .L11
 211:Generated_Source\PSoC4/I2C_Slave_I2C_SLAVE.c ****     matchReg |= ((uint32)  I2C_Slave_GET_I2C_8BIT_ADDRESS(address));
 166              		.loc 1 211 0
 167 0004 4000     		lsl	r0, r0, #1
 168              	.LVL9:
 208:Generated_Source\PSoC4/I2C_Slave_I2C_SLAVE.c **** 
 169              		.loc 1 208 0
ARM GAS  C:\Users\TIMCHE~1\AppData\Local\Temp\ccQmtc5d.s 			page 8


 170 0006 0B68     		ldr	r3, [r1]
 171              	.LVL10:
 172              		.loc 1 211 0
 173 0008 1040     		and	r0, r2
 210:Generated_Source\PSoC4/I2C_Slave_I2C_SLAVE.c ****     matchReg |= ((uint32)  I2C_Slave_GET_I2C_8BIT_ADDRESS(address));
 174              		.loc 1 210 0
 175 000a 9343     		bic	r3, r2
 176              	.LVL11:
 177              		.loc 1 211 0
 178 000c 1843     		orr	r0, r3
 179              	.LVL12:
 212:Generated_Source\PSoC4/I2C_Slave_I2C_SLAVE.c **** 
 213:Generated_Source\PSoC4/I2C_Slave_I2C_SLAVE.c ****     I2C_Slave_RX_MATCH_REG = matchReg;
 180              		.loc 1 213 0
 181 000e 0860     		str	r0, [r1]
 214:Generated_Source\PSoC4/I2C_Slave_I2C_SLAVE.c **** }
 182              		.loc 1 214 0
 183              		@ sp needed
 184 0010 7047     		bx	lr
 185              	.L12:
 186 0012 C046     		.align	2
 187              	.L11:
 188 0014 10030640 		.word	1074135824
 189              		.cfi_endproc
 190              	.LFE3:
 191              		.size	I2C_Slave_I2CSlaveSetAddress, .-I2C_Slave_I2CSlaveSetAddress
 192              		.section	.text.I2C_Slave_I2CSlaveSetAddressMask,"ax",%progbits
 193              		.align	1
 194              		.global	I2C_Slave_I2CSlaveSetAddressMask
 195              		.code	16
 196              		.thumb_func
 197              		.type	I2C_Slave_I2CSlaveSetAddressMask, %function
 198              	I2C_Slave_I2CSlaveSetAddressMask:
 199              	.LFB4:
 215:Generated_Source\PSoC4/I2C_Slave_I2C_SLAVE.c **** 
 216:Generated_Source\PSoC4/I2C_Slave_I2C_SLAVE.c **** 
 217:Generated_Source\PSoC4/I2C_Slave_I2C_SLAVE.c **** /*******************************************************************************
 218:Generated_Source\PSoC4/I2C_Slave_I2C_SLAVE.c **** * Function Name: I2C_Slave_I2CSlaveSetAddressMask
 219:Generated_Source\PSoC4/I2C_Slave_I2C_SLAVE.c **** ****************************************************************************//**
 220:Generated_Source\PSoC4/I2C_Slave_I2C_SLAVE.c **** *
 221:Generated_Source\PSoC4/I2C_Slave_I2C_SLAVE.c **** *  Sets the I2C slave address mask.
 222:Generated_Source\PSoC4/I2C_Slave_I2C_SLAVE.c **** *
 223:Generated_Source\PSoC4/I2C_Slave_I2C_SLAVE.c **** * \param addressMask: I2C slave address mask.
 224:Generated_Source\PSoC4/I2C_Slave_I2C_SLAVE.c **** *  - Bit value 0 – excludes bit from address comparison.
 225:Generated_Source\PSoC4/I2C_Slave_I2C_SLAVE.c **** *  - Bit value 1 – the bit needs to match with the corresponding bit of the 
 226:Generated_Source\PSoC4/I2C_Slave_I2C_SLAVE.c **** *  I2C slave address.
 227:Generated_Source\PSoC4/I2C_Slave_I2C_SLAVE.c **** *
 228:Generated_Source\PSoC4/I2C_Slave_I2C_SLAVE.c **** *  The range of valid values is between 0 and 254 (0x00 to 0xFE). 
 229:Generated_Source\PSoC4/I2C_Slave_I2C_SLAVE.c **** *  The LSB of the address mask must be 0 because it corresponds to R/W bit 
 230:Generated_Source\PSoC4/I2C_Slave_I2C_SLAVE.c **** *  within I2C slave address byte.
 231:Generated_Source\PSoC4/I2C_Slave_I2C_SLAVE.c **** *
 232:Generated_Source\PSoC4/I2C_Slave_I2C_SLAVE.c **** *******************************************************************************/
 233:Generated_Source\PSoC4/I2C_Slave_I2C_SLAVE.c **** void I2C_Slave_I2CSlaveSetAddressMask(uint32 addressMask)
 234:Generated_Source\PSoC4/I2C_Slave_I2C_SLAVE.c **** {
 200              		.loc 1 234 0
 201              		.cfi_startproc
 202              	.LVL13:
ARM GAS  C:\Users\TIMCHE~1\AppData\Local\Temp\ccQmtc5d.s 			page 9


 235:Generated_Source\PSoC4/I2C_Slave_I2C_SLAVE.c ****     uint32 matchReg;
 236:Generated_Source\PSoC4/I2C_Slave_I2C_SLAVE.c **** 
 237:Generated_Source\PSoC4/I2C_Slave_I2C_SLAVE.c ****     matchReg = I2C_Slave_RX_MATCH_REG;
 203              		.loc 1 237 0
 204 0000 034A     		ldr	r2, .L14
 238:Generated_Source\PSoC4/I2C_Slave_I2C_SLAVE.c **** 
 239:Generated_Source\PSoC4/I2C_Slave_I2C_SLAVE.c ****     matchReg &= ((uint32) ~I2C_Slave_RX_MATCH_MASK_MASK);
 205              		.loc 1 239 0
 206 0002 044B     		ldr	r3, .L14+4
 237:Generated_Source\PSoC4/I2C_Slave_I2C_SLAVE.c **** 
 207              		.loc 1 237 0
 208 0004 1168     		ldr	r1, [r2]
 209              	.LVL14:
 240:Generated_Source\PSoC4/I2C_Slave_I2C_SLAVE.c ****     matchReg |= ((uint32) (addressMask << I2C_Slave_RX_MATCH_MASK_POS));
 210              		.loc 1 240 0
 211 0006 0004     		lsl	r0, r0, #16
 212              	.LVL15:
 239:Generated_Source\PSoC4/I2C_Slave_I2C_SLAVE.c ****     matchReg |= ((uint32) (addressMask << I2C_Slave_RX_MATCH_MASK_POS));
 213              		.loc 1 239 0
 214 0008 0B40     		and	r3, r1
 215              	.LVL16:
 216              		.loc 1 240 0
 217 000a 1843     		orr	r0, r3
 218              	.LVL17:
 241:Generated_Source\PSoC4/I2C_Slave_I2C_SLAVE.c **** 
 242:Generated_Source\PSoC4/I2C_Slave_I2C_SLAVE.c ****     I2C_Slave_RX_MATCH_REG = matchReg;
 219              		.loc 1 242 0
 220 000c 1060     		str	r0, [r2]
 243:Generated_Source\PSoC4/I2C_Slave_I2C_SLAVE.c **** }
 221              		.loc 1 243 0
 222              		@ sp needed
 223 000e 7047     		bx	lr
 224              	.L15:
 225              		.align	2
 226              	.L14:
 227 0010 10030640 		.word	1074135824
 228 0014 FFFF00FF 		.word	-16711681
 229              		.cfi_endproc
 230              	.LFE4:
 231              		.size	I2C_Slave_I2CSlaveSetAddressMask, .-I2C_Slave_I2CSlaveSetAddressMask
 232              		.section	.text.I2C_Slave_I2CSlaveInitReadBuf,"ax",%progbits
 233              		.align	1
 234              		.global	I2C_Slave_I2CSlaveInitReadBuf
 235              		.code	16
 236              		.thumb_func
 237              		.type	I2C_Slave_I2CSlaveInitReadBuf, %function
 238              	I2C_Slave_I2CSlaveInitReadBuf:
 239              	.LFB5:
 244:Generated_Source\PSoC4/I2C_Slave_I2C_SLAVE.c **** 
 245:Generated_Source\PSoC4/I2C_Slave_I2C_SLAVE.c **** 
 246:Generated_Source\PSoC4/I2C_Slave_I2C_SLAVE.c **** /*******************************************************************************
 247:Generated_Source\PSoC4/I2C_Slave_I2C_SLAVE.c **** * Function Name: I2C_Slave_I2CSlaveInitReadBuf
 248:Generated_Source\PSoC4/I2C_Slave_I2C_SLAVE.c **** ****************************************************************************//**
 249:Generated_Source\PSoC4/I2C_Slave_I2C_SLAVE.c **** *
 250:Generated_Source\PSoC4/I2C_Slave_I2C_SLAVE.c **** *  Sets the buffer pointer and size of the read buffer. This function also
 251:Generated_Source\PSoC4/I2C_Slave_I2C_SLAVE.c **** *  resets the transfer count returned with the 
 252:Generated_Source\PSoC4/I2C_Slave_I2C_SLAVE.c **** *  I2C_Slave_SlaveGetReadBufSize() function.
ARM GAS  C:\Users\TIMCHE~1\AppData\Local\Temp\ccQmtc5d.s 			page 10


 253:Generated_Source\PSoC4/I2C_Slave_I2C_SLAVE.c **** *
 254:Generated_Source\PSoC4/I2C_Slave_I2C_SLAVE.c **** * \param readBuf: Pointer to the data buffer to be read by the master.
 255:Generated_Source\PSoC4/I2C_Slave_I2C_SLAVE.c **** * \param bufSize: Size of the read buffer exposed to the I2C master.
 256:Generated_Source\PSoC4/I2C_Slave_I2C_SLAVE.c **** *
 257:Generated_Source\PSoC4/I2C_Slave_I2C_SLAVE.c **** * \sideeffect
 258:Generated_Source\PSoC4/I2C_Slave_I2C_SLAVE.c **** *  If this function is called during a bus transaction, data from the previous
 259:Generated_Source\PSoC4/I2C_Slave_I2C_SLAVE.c **** *  buffer location and the beginning of current buffer may be transmitted.
 260:Generated_Source\PSoC4/I2C_Slave_I2C_SLAVE.c **** *
 261:Generated_Source\PSoC4/I2C_Slave_I2C_SLAVE.c **** * \globalvars
 262:Generated_Source\PSoC4/I2C_Slave_I2C_SLAVE.c **** *  I2C_Slave_slRdBufPtr   - used to store pointer to slave read buffer.
 263:Generated_Source\PSoC4/I2C_Slave_I2C_SLAVE.c **** *  I2C_Slave_slRdBufSize  - used to store salve read buffer size.
 264:Generated_Source\PSoC4/I2C_Slave_I2C_SLAVE.c **** *  I2C_Slave_slRdBufIndex - used to store current index within slave
 265:Generated_Source\PSoC4/I2C_Slave_I2C_SLAVE.c **** *  read buffer.
 266:Generated_Source\PSoC4/I2C_Slave_I2C_SLAVE.c **** *
 267:Generated_Source\PSoC4/I2C_Slave_I2C_SLAVE.c **** *******************************************************************************/
 268:Generated_Source\PSoC4/I2C_Slave_I2C_SLAVE.c **** void I2C_Slave_I2CSlaveInitReadBuf(uint8 * rdBuf, uint32 bufSize)
 269:Generated_Source\PSoC4/I2C_Slave_I2C_SLAVE.c **** {
 240              		.loc 1 269 0
 241              		.cfi_startproc
 242              	.LVL18:
 243 0000 38B5     		push	{r3, r4, r5, lr}
 244              		.cfi_def_cfa_offset 16
 245              		.cfi_offset 3, -16
 246              		.cfi_offset 4, -12
 247              		.cfi_offset 5, -8
 248              		.cfi_offset 14, -4
 270:Generated_Source\PSoC4/I2C_Slave_I2C_SLAVE.c ****     /* Check for proper buffer */
 271:Generated_Source\PSoC4/I2C_Slave_I2C_SLAVE.c ****     if(NULL != rdBuf)
 249              		.loc 1 271 0
 250 0002 0028     		cmp	r0, #0
 251 0004 10D0     		beq	.L16
 252 0006 041C     		mov	r4, r0
 253 0008 0D1C     		mov	r5, r1
 272:Generated_Source\PSoC4/I2C_Slave_I2C_SLAVE.c ****     {
 273:Generated_Source\PSoC4/I2C_Slave_I2C_SLAVE.c ****         I2C_Slave_DisableInt();  /* Lock from interruption */
 254              		.loc 1 273 0
 255 000a 0520     		mov	r0, #5
 256              	.LVL19:
 257 000c FFF7FEFF 		bl	CyIntDisable
 258              	.LVL20:
 274:Generated_Source\PSoC4/I2C_Slave_I2C_SLAVE.c **** 
 275:Generated_Source\PSoC4/I2C_Slave_I2C_SLAVE.c ****         I2C_Slave_slRdBufPtr      = (volatile uint8 *) rdBuf; /* Set buffer pointer  */
 259              		.loc 1 275 0
 260 0010 064B     		ldr	r3, .L22
 276:Generated_Source\PSoC4/I2C_Slave_I2C_SLAVE.c ****         I2C_Slave_slRdBufSize     = bufSize;                  /* Set buffer size     */
 277:Generated_Source\PSoC4/I2C_Slave_I2C_SLAVE.c ****         I2C_Slave_slRdBufIndex    = 0u;                       /* Clear buffer index  */
 261              		.loc 1 277 0
 262 0012 074A     		ldr	r2, .L22+4
 275:Generated_Source\PSoC4/I2C_Slave_I2C_SLAVE.c ****         I2C_Slave_slRdBufSize     = bufSize;                  /* Set buffer size     */
 263              		.loc 1 275 0
 264 0014 1C60     		str	r4, [r3]
 276:Generated_Source\PSoC4/I2C_Slave_I2C_SLAVE.c ****         I2C_Slave_slRdBufSize     = bufSize;                  /* Set buffer size     */
 265              		.loc 1 276 0
 266 0016 074B     		ldr	r3, .L22+8
 278:Generated_Source\PSoC4/I2C_Slave_I2C_SLAVE.c ****         I2C_Slave_slRdBufIndexTmp = 0u;                       /* Clear buffer index  */
 279:Generated_Source\PSoC4/I2C_Slave_I2C_SLAVE.c **** 
 280:Generated_Source\PSoC4/I2C_Slave_I2C_SLAVE.c ****         I2C_Slave_EnableInt();   /* Release lock */
ARM GAS  C:\Users\TIMCHE~1\AppData\Local\Temp\ccQmtc5d.s 			page 11


 267              		.loc 1 280 0
 268 0018 0520     		mov	r0, #5
 276:Generated_Source\PSoC4/I2C_Slave_I2C_SLAVE.c ****         I2C_Slave_slRdBufIndex    = 0u;                       /* Clear buffer index  */
 269              		.loc 1 276 0
 270 001a 1D60     		str	r5, [r3]
 277:Generated_Source\PSoC4/I2C_Slave_I2C_SLAVE.c ****         I2C_Slave_slRdBufIndexTmp = 0u;                       /* Clear buffer index  */
 271              		.loc 1 277 0
 272 001c 0023     		mov	r3, #0
 273 001e 1360     		str	r3, [r2]
 278:Generated_Source\PSoC4/I2C_Slave_I2C_SLAVE.c ****         I2C_Slave_slRdBufIndexTmp = 0u;                       /* Clear buffer index  */
 274              		.loc 1 278 0
 275 0020 054A     		ldr	r2, .L22+12
 276 0022 1360     		str	r3, [r2]
 277              		.loc 1 280 0
 278 0024 FFF7FEFF 		bl	CyIntEnable
 279              	.LVL21:
 280              	.L16:
 281:Generated_Source\PSoC4/I2C_Slave_I2C_SLAVE.c ****     }
 282:Generated_Source\PSoC4/I2C_Slave_I2C_SLAVE.c **** }
 281              		.loc 1 282 0
 282              		@ sp needed
 283 0028 38BD     		pop	{r3, r4, r5, pc}
 284              	.L23:
 285 002a C046     		.align	2
 286              	.L22:
 287 002c 00000000 		.word	I2C_Slave_slRdBufPtr
 288 0030 00000000 		.word	I2C_Slave_slRdBufIndex
 289 0034 00000000 		.word	I2C_Slave_slRdBufSize
 290 0038 00000000 		.word	I2C_Slave_slRdBufIndexTmp
 291              		.cfi_endproc
 292              	.LFE5:
 293              		.size	I2C_Slave_I2CSlaveInitReadBuf, .-I2C_Slave_I2CSlaveInitReadBuf
 294              		.section	.text.I2C_Slave_I2CSlaveInitWriteBuf,"ax",%progbits
 295              		.align	1
 296              		.global	I2C_Slave_I2CSlaveInitWriteBuf
 297              		.code	16
 298              		.thumb_func
 299              		.type	I2C_Slave_I2CSlaveInitWriteBuf, %function
 300              	I2C_Slave_I2CSlaveInitWriteBuf:
 301              	.LFB6:
 283:Generated_Source\PSoC4/I2C_Slave_I2C_SLAVE.c **** 
 284:Generated_Source\PSoC4/I2C_Slave_I2C_SLAVE.c **** 
 285:Generated_Source\PSoC4/I2C_Slave_I2C_SLAVE.c **** /*******************************************************************************
 286:Generated_Source\PSoC4/I2C_Slave_I2C_SLAVE.c **** * Function Name: I2C_Slave_I2CSlaveInitWriteBuf
 287:Generated_Source\PSoC4/I2C_Slave_I2C_SLAVE.c **** ****************************************************************************//**
 288:Generated_Source\PSoC4/I2C_Slave_I2C_SLAVE.c **** *
 289:Generated_Source\PSoC4/I2C_Slave_I2C_SLAVE.c **** *  Sets the buffer pointer and size of the write buffer. This function also 
 290:Generated_Source\PSoC4/I2C_Slave_I2C_SLAVE.c **** *  resets the transfer count returned with the 
 291:Generated_Source\PSoC4/I2C_Slave_I2C_SLAVE.c **** *  I2C_Slave_I2CSlaveGetWriteBufSize() function.
 292:Generated_Source\PSoC4/I2C_Slave_I2C_SLAVE.c **** *
 293:Generated_Source\PSoC4/I2C_Slave_I2C_SLAVE.c **** * \param writeBuf: Pointer to the data buffer to be written by the master.
 294:Generated_Source\PSoC4/I2C_Slave_I2C_SLAVE.c **** * \param bufSize:  Size of the write buffer exposed to the I2C master.
 295:Generated_Source\PSoC4/I2C_Slave_I2C_SLAVE.c **** *
 296:Generated_Source\PSoC4/I2C_Slave_I2C_SLAVE.c **** * \sideeffect
 297:Generated_Source\PSoC4/I2C_Slave_I2C_SLAVE.c **** *  If this function is called during a bus transaction, data may be received in 
 298:Generated_Source\PSoC4/I2C_Slave_I2C_SLAVE.c **** *  the previous buffer and the current buffer location.
 299:Generated_Source\PSoC4/I2C_Slave_I2C_SLAVE.c **** *
ARM GAS  C:\Users\TIMCHE~1\AppData\Local\Temp\ccQmtc5d.s 			page 12


 300:Generated_Source\PSoC4/I2C_Slave_I2C_SLAVE.c **** * \globalvars
 301:Generated_Source\PSoC4/I2C_Slave_I2C_SLAVE.c **** *  I2C_Slave_slWrBufPtr   - used to store pointer to slave write buffer.
 302:Generated_Source\PSoC4/I2C_Slave_I2C_SLAVE.c **** *  I2C_Slave_slWrBufSize  - used to store salve write buffer size.
 303:Generated_Source\PSoC4/I2C_Slave_I2C_SLAVE.c **** *  I2C_Slave_slWrBufIndex - used to store current index within slave
 304:Generated_Source\PSoC4/I2C_Slave_I2C_SLAVE.c **** *   write buffer.
 305:Generated_Source\PSoC4/I2C_Slave_I2C_SLAVE.c **** *
 306:Generated_Source\PSoC4/I2C_Slave_I2C_SLAVE.c **** *******************************************************************************/
 307:Generated_Source\PSoC4/I2C_Slave_I2C_SLAVE.c **** void I2C_Slave_I2CSlaveInitWriteBuf(uint8 * wrBuf, uint32 bufSize)
 308:Generated_Source\PSoC4/I2C_Slave_I2C_SLAVE.c **** {
 302              		.loc 1 308 0
 303              		.cfi_startproc
 304              	.LVL22:
 305 0000 38B5     		push	{r3, r4, r5, lr}
 306              		.cfi_def_cfa_offset 16
 307              		.cfi_offset 3, -16
 308              		.cfi_offset 4, -12
 309              		.cfi_offset 5, -8
 310              		.cfi_offset 14, -4
 309:Generated_Source\PSoC4/I2C_Slave_I2C_SLAVE.c ****     /* Check buffer pointer */
 310:Generated_Source\PSoC4/I2C_Slave_I2C_SLAVE.c ****     if(NULL != wrBuf)
 311              		.loc 1 310 0
 312 0002 0028     		cmp	r0, #0
 313 0004 0ED0     		beq	.L24
 314 0006 041C     		mov	r4, r0
 315 0008 0D1C     		mov	r5, r1
 311:Generated_Source\PSoC4/I2C_Slave_I2C_SLAVE.c ****     {
 312:Generated_Source\PSoC4/I2C_Slave_I2C_SLAVE.c ****         I2C_Slave_DisableInt();  /* Lock from interruption */
 316              		.loc 1 312 0
 317 000a 0520     		mov	r0, #5
 318              	.LVL23:
 319 000c FFF7FEFF 		bl	CyIntDisable
 320              	.LVL24:
 313:Generated_Source\PSoC4/I2C_Slave_I2C_SLAVE.c **** 
 314:Generated_Source\PSoC4/I2C_Slave_I2C_SLAVE.c ****         I2C_Slave_slWrBufPtr   = (volatile uint8 *) wrBuf; /* Set buffer pointer  */
 315:Generated_Source\PSoC4/I2C_Slave_I2C_SLAVE.c ****         I2C_Slave_slWrBufSize  = bufSize;                  /* Set buffer size     */
 316:Generated_Source\PSoC4/I2C_Slave_I2C_SLAVE.c ****         I2C_Slave_slWrBufIndex = 0u;                       /* Clear buffer index  */
 321              		.loc 1 316 0
 322 0010 0022     		mov	r2, #0
 314:Generated_Source\PSoC4/I2C_Slave_I2C_SLAVE.c ****         I2C_Slave_slWrBufSize  = bufSize;                  /* Set buffer size     */
 323              		.loc 1 314 0
 324 0012 054B     		ldr	r3, .L29
 317:Generated_Source\PSoC4/I2C_Slave_I2C_SLAVE.c **** 
 318:Generated_Source\PSoC4/I2C_Slave_I2C_SLAVE.c ****         I2C_Slave_EnableInt();   /* Release lock */
 325              		.loc 1 318 0
 326 0014 0520     		mov	r0, #5
 314:Generated_Source\PSoC4/I2C_Slave_I2C_SLAVE.c ****         I2C_Slave_slWrBufSize  = bufSize;                  /* Set buffer size     */
 327              		.loc 1 314 0
 328 0016 1C60     		str	r4, [r3]
 315:Generated_Source\PSoC4/I2C_Slave_I2C_SLAVE.c ****         I2C_Slave_slWrBufIndex = 0u;                       /* Clear buffer index  */
 329              		.loc 1 315 0
 330 0018 044B     		ldr	r3, .L29+4
 331 001a 1D60     		str	r5, [r3]
 316:Generated_Source\PSoC4/I2C_Slave_I2C_SLAVE.c **** 
 332              		.loc 1 316 0
 333 001c 044B     		ldr	r3, .L29+8
 334 001e 1A60     		str	r2, [r3]
 335              		.loc 1 318 0
ARM GAS  C:\Users\TIMCHE~1\AppData\Local\Temp\ccQmtc5d.s 			page 13


 336 0020 FFF7FEFF 		bl	CyIntEnable
 337              	.LVL25:
 338              	.L24:
 319:Generated_Source\PSoC4/I2C_Slave_I2C_SLAVE.c ****     }
 320:Generated_Source\PSoC4/I2C_Slave_I2C_SLAVE.c **** }
 339              		.loc 1 320 0
 340              		@ sp needed
 341 0024 38BD     		pop	{r3, r4, r5, pc}
 342              	.L30:
 343 0026 C046     		.align	2
 344              	.L29:
 345 0028 00000000 		.word	I2C_Slave_slWrBufPtr
 346 002c 00000000 		.word	I2C_Slave_slWrBufSize
 347 0030 00000000 		.word	I2C_Slave_slWrBufIndex
 348              		.cfi_endproc
 349              	.LFE6:
 350              		.size	I2C_Slave_I2CSlaveInitWriteBuf, .-I2C_Slave_I2CSlaveInitWriteBuf
 351              		.section	.text.I2C_Slave_I2CSlaveGetReadBufSize,"ax",%progbits
 352              		.align	1
 353              		.global	I2C_Slave_I2CSlaveGetReadBufSize
 354              		.code	16
 355              		.thumb_func
 356              		.type	I2C_Slave_I2CSlaveGetReadBufSize, %function
 357              	I2C_Slave_I2CSlaveGetReadBufSize:
 358              	.LFB7:
 321:Generated_Source\PSoC4/I2C_Slave_I2C_SLAVE.c **** 
 322:Generated_Source\PSoC4/I2C_Slave_I2C_SLAVE.c **** 
 323:Generated_Source\PSoC4/I2C_Slave_I2C_SLAVE.c **** /*******************************************************************************
 324:Generated_Source\PSoC4/I2C_Slave_I2C_SLAVE.c **** * Function Name: I2C_Slave_I2CSlaveGetReadBufSize
 325:Generated_Source\PSoC4/I2C_Slave_I2C_SLAVE.c **** ****************************************************************************//**
 326:Generated_Source\PSoC4/I2C_Slave_I2C_SLAVE.c **** *
 327:Generated_Source\PSoC4/I2C_Slave_I2C_SLAVE.c **** *  Returns the number of bytes read by the I2C master since an
 328:Generated_Source\PSoC4/I2C_Slave_I2C_SLAVE.c **** *  I2C_Slave_I2CSlaveInitReadBuf() or 
 329:Generated_Source\PSoC4/I2C_Slave_I2C_SLAVE.c **** *  I2C_Slave_I2CSlaveClearReadBuf() function was executed.
 330:Generated_Source\PSoC4/I2C_Slave_I2C_SLAVE.c **** *  The maximum return value is the size of the read buffer.
 331:Generated_Source\PSoC4/I2C_Slave_I2C_SLAVE.c **** *
 332:Generated_Source\PSoC4/I2C_Slave_I2C_SLAVE.c **** * \return
 333:Generated_Source\PSoC4/I2C_Slave_I2C_SLAVE.c **** *  Bytes read by master. If the transfer is not yet complete, it returns 
 334:Generated_Source\PSoC4/I2C_Slave_I2C_SLAVE.c **** *  zero until transfer completion.
 335:Generated_Source\PSoC4/I2C_Slave_I2C_SLAVE.c **** *
 336:Generated_Source\PSoC4/I2C_Slave_I2C_SLAVE.c **** * \sideeffect
 337:Generated_Source\PSoC4/I2C_Slave_I2C_SLAVE.c **** *  The returned value is not valid if I2C_Slave_I2C_SSTAT_RD_ERR was 
 338:Generated_Source\PSoC4/I2C_Slave_I2C_SLAVE.c **** *  captured by the slave.
 339:Generated_Source\PSoC4/I2C_Slave_I2C_SLAVE.c **** *
 340:Generated_Source\PSoC4/I2C_Slave_I2C_SLAVE.c **** * \globalvars
 341:Generated_Source\PSoC4/I2C_Slave_I2C_SLAVE.c **** *  I2C_Slave_slRdBufIndex - used to store current index within slave
 342:Generated_Source\PSoC4/I2C_Slave_I2C_SLAVE.c **** *  read buffer.
 343:Generated_Source\PSoC4/I2C_Slave_I2C_SLAVE.c **** *
 344:Generated_Source\PSoC4/I2C_Slave_I2C_SLAVE.c **** *******************************************************************************/
 345:Generated_Source\PSoC4/I2C_Slave_I2C_SLAVE.c **** uint32 I2C_Slave_I2CSlaveGetReadBufSize(void)
 346:Generated_Source\PSoC4/I2C_Slave_I2C_SLAVE.c **** {
 359              		.loc 1 346 0
 360              		.cfi_startproc
 347:Generated_Source\PSoC4/I2C_Slave_I2C_SLAVE.c ****     return(I2C_Slave_slRdBufIndex);
 361              		.loc 1 347 0
 362 0000 014B     		ldr	r3, .L32
 348:Generated_Source\PSoC4/I2C_Slave_I2C_SLAVE.c **** }
ARM GAS  C:\Users\TIMCHE~1\AppData\Local\Temp\ccQmtc5d.s 			page 14


 363              		.loc 1 348 0
 364              		@ sp needed
 347:Generated_Source\PSoC4/I2C_Slave_I2C_SLAVE.c ****     return(I2C_Slave_slRdBufIndex);
 365              		.loc 1 347 0
 366 0002 1868     		ldr	r0, [r3]
 367              		.loc 1 348 0
 368 0004 7047     		bx	lr
 369              	.L33:
 370 0006 C046     		.align	2
 371              	.L32:
 372 0008 00000000 		.word	I2C_Slave_slRdBufIndex
 373              		.cfi_endproc
 374              	.LFE7:
 375              		.size	I2C_Slave_I2CSlaveGetReadBufSize, .-I2C_Slave_I2CSlaveGetReadBufSize
 376              		.section	.text.I2C_Slave_I2CSlaveGetWriteBufSize,"ax",%progbits
 377              		.align	1
 378              		.global	I2C_Slave_I2CSlaveGetWriteBufSize
 379              		.code	16
 380              		.thumb_func
 381              		.type	I2C_Slave_I2CSlaveGetWriteBufSize, %function
 382              	I2C_Slave_I2CSlaveGetWriteBufSize:
 383              	.LFB8:
 349:Generated_Source\PSoC4/I2C_Slave_I2C_SLAVE.c **** 
 350:Generated_Source\PSoC4/I2C_Slave_I2C_SLAVE.c **** 
 351:Generated_Source\PSoC4/I2C_Slave_I2C_SLAVE.c **** /*******************************************************************************
 352:Generated_Source\PSoC4/I2C_Slave_I2C_SLAVE.c **** * Function Name: I2C_Slave_I2CSlaveGetWriteBufSize
 353:Generated_Source\PSoC4/I2C_Slave_I2C_SLAVE.c **** ****************************************************************************//**
 354:Generated_Source\PSoC4/I2C_Slave_I2C_SLAVE.c **** *
 355:Generated_Source\PSoC4/I2C_Slave_I2C_SLAVE.c **** *  Returns the number of bytes written by the I2C master since an
 356:Generated_Source\PSoC4/I2C_Slave_I2C_SLAVE.c **** *  I2C_Slave_I2CSlaveInitWriteBuf() or 
 357:Generated_Source\PSoC4/I2C_Slave_I2C_SLAVE.c **** *  I2C_Slave_I2CSlaveClearWriteBuf() function was executed.
 358:Generated_Source\PSoC4/I2C_Slave_I2C_SLAVE.c **** *  The maximum return value is the size of the write buffer.
 359:Generated_Source\PSoC4/I2C_Slave_I2C_SLAVE.c **** *
 360:Generated_Source\PSoC4/I2C_Slave_I2C_SLAVE.c **** * \return
 361:Generated_Source\PSoC4/I2C_Slave_I2C_SLAVE.c **** *  Bytes written by master.
 362:Generated_Source\PSoC4/I2C_Slave_I2C_SLAVE.c **** *
 363:Generated_Source\PSoC4/I2C_Slave_I2C_SLAVE.c **** * \sideeffect
 364:Generated_Source\PSoC4/I2C_Slave_I2C_SLAVE.c **** *  The returned value is not valid if I2C_Slave_I2C_SSTAT_WR_ERR was 
 365:Generated_Source\PSoC4/I2C_Slave_I2C_SLAVE.c **** *  captured by the slave.
 366:Generated_Source\PSoC4/I2C_Slave_I2C_SLAVE.c **** *
 367:Generated_Source\PSoC4/I2C_Slave_I2C_SLAVE.c **** * \globalvars
 368:Generated_Source\PSoC4/I2C_Slave_I2C_SLAVE.c **** *  I2C_Slave_slWrBufIndex - used to store current index within slave
 369:Generated_Source\PSoC4/I2C_Slave_I2C_SLAVE.c **** *   write buffer.
 370:Generated_Source\PSoC4/I2C_Slave_I2C_SLAVE.c **** *
 371:Generated_Source\PSoC4/I2C_Slave_I2C_SLAVE.c **** *******************************************************************************/
 372:Generated_Source\PSoC4/I2C_Slave_I2C_SLAVE.c **** uint32 I2C_Slave_I2CSlaveGetWriteBufSize(void)
 373:Generated_Source\PSoC4/I2C_Slave_I2C_SLAVE.c **** {
 384              		.loc 1 373 0
 385              		.cfi_startproc
 374:Generated_Source\PSoC4/I2C_Slave_I2C_SLAVE.c ****     return(I2C_Slave_slWrBufIndex);
 386              		.loc 1 374 0
 387 0000 014B     		ldr	r3, .L35
 375:Generated_Source\PSoC4/I2C_Slave_I2C_SLAVE.c **** }
 388              		.loc 1 375 0
 389              		@ sp needed
 374:Generated_Source\PSoC4/I2C_Slave_I2C_SLAVE.c ****     return(I2C_Slave_slWrBufIndex);
 390              		.loc 1 374 0
ARM GAS  C:\Users\TIMCHE~1\AppData\Local\Temp\ccQmtc5d.s 			page 15


 391 0002 1868     		ldr	r0, [r3]
 392              		.loc 1 375 0
 393 0004 7047     		bx	lr
 394              	.L36:
 395 0006 C046     		.align	2
 396              	.L35:
 397 0008 00000000 		.word	I2C_Slave_slWrBufIndex
 398              		.cfi_endproc
 399              	.LFE8:
 400              		.size	I2C_Slave_I2CSlaveGetWriteBufSize, .-I2C_Slave_I2CSlaveGetWriteBufSize
 401              		.section	.text.I2C_Slave_I2CSlaveClearReadBuf,"ax",%progbits
 402              		.align	1
 403              		.global	I2C_Slave_I2CSlaveClearReadBuf
 404              		.code	16
 405              		.thumb_func
 406              		.type	I2C_Slave_I2CSlaveClearReadBuf, %function
 407              	I2C_Slave_I2CSlaveClearReadBuf:
 408              	.LFB9:
 376:Generated_Source\PSoC4/I2C_Slave_I2C_SLAVE.c **** 
 377:Generated_Source\PSoC4/I2C_Slave_I2C_SLAVE.c **** 
 378:Generated_Source\PSoC4/I2C_Slave_I2C_SLAVE.c **** /*******************************************************************************
 379:Generated_Source\PSoC4/I2C_Slave_I2C_SLAVE.c **** * Function Name: I2C_Slave_I2CSlaveClearReadBuf
 380:Generated_Source\PSoC4/I2C_Slave_I2C_SLAVE.c **** ****************************************************************************//**
 381:Generated_Source\PSoC4/I2C_Slave_I2C_SLAVE.c **** *
 382:Generated_Source\PSoC4/I2C_Slave_I2C_SLAVE.c **** *  Resets the read pointer to the first byte in the read buffer. The next byte
 383:Generated_Source\PSoC4/I2C_Slave_I2C_SLAVE.c **** *  read by the master will be the first byte in the read buffer.
 384:Generated_Source\PSoC4/I2C_Slave_I2C_SLAVE.c **** *
 385:Generated_Source\PSoC4/I2C_Slave_I2C_SLAVE.c **** * \globalvars
 386:Generated_Source\PSoC4/I2C_Slave_I2C_SLAVE.c **** *  I2C_Slave_slRdBufIndex - used to store current index within slave
 387:Generated_Source\PSoC4/I2C_Slave_I2C_SLAVE.c **** *  read buffer.
 388:Generated_Source\PSoC4/I2C_Slave_I2C_SLAVE.c **** *
 389:Generated_Source\PSoC4/I2C_Slave_I2C_SLAVE.c **** *******************************************************************************/
 390:Generated_Source\PSoC4/I2C_Slave_I2C_SLAVE.c **** void I2C_Slave_I2CSlaveClearReadBuf(void)
 391:Generated_Source\PSoC4/I2C_Slave_I2C_SLAVE.c **** {
 409              		.loc 1 391 0
 410              		.cfi_startproc
 392:Generated_Source\PSoC4/I2C_Slave_I2C_SLAVE.c ****     I2C_Slave_slRdBufIndex = 0u;
 411              		.loc 1 392 0
 412 0000 0022     		mov	r2, #0
 413 0002 014B     		ldr	r3, .L38
 393:Generated_Source\PSoC4/I2C_Slave_I2C_SLAVE.c **** }
 414              		.loc 1 393 0
 415              		@ sp needed
 392:Generated_Source\PSoC4/I2C_Slave_I2C_SLAVE.c ****     I2C_Slave_slRdBufIndex = 0u;
 416              		.loc 1 392 0
 417 0004 1A60     		str	r2, [r3]
 418              		.loc 1 393 0
 419 0006 7047     		bx	lr
 420              	.L39:
 421              		.align	2
 422              	.L38:
 423 0008 00000000 		.word	I2C_Slave_slRdBufIndex
 424              		.cfi_endproc
 425              	.LFE9:
 426              		.size	I2C_Slave_I2CSlaveClearReadBuf, .-I2C_Slave_I2CSlaveClearReadBuf
 427              		.section	.text.I2C_Slave_I2CSlaveClearWriteBuf,"ax",%progbits
 428              		.align	1
ARM GAS  C:\Users\TIMCHE~1\AppData\Local\Temp\ccQmtc5d.s 			page 16


 429              		.global	I2C_Slave_I2CSlaveClearWriteBuf
 430              		.code	16
 431              		.thumb_func
 432              		.type	I2C_Slave_I2CSlaveClearWriteBuf, %function
 433              	I2C_Slave_I2CSlaveClearWriteBuf:
 434              	.LFB10:
 394:Generated_Source\PSoC4/I2C_Slave_I2C_SLAVE.c **** 
 395:Generated_Source\PSoC4/I2C_Slave_I2C_SLAVE.c **** 
 396:Generated_Source\PSoC4/I2C_Slave_I2C_SLAVE.c **** /*******************************************************************************
 397:Generated_Source\PSoC4/I2C_Slave_I2C_SLAVE.c **** * Function Name: I2C_Slave_I2CSlaveClearWriteBuf
 398:Generated_Source\PSoC4/I2C_Slave_I2C_SLAVE.c **** ****************************************************************************//**
 399:Generated_Source\PSoC4/I2C_Slave_I2C_SLAVE.c **** *
 400:Generated_Source\PSoC4/I2C_Slave_I2C_SLAVE.c **** *  Resets the write pointer to the first byte in the write buffer. The next byte
 401:Generated_Source\PSoC4/I2C_Slave_I2C_SLAVE.c **** *  written by the master will be the first byte in the write buffer.
 402:Generated_Source\PSoC4/I2C_Slave_I2C_SLAVE.c **** *
 403:Generated_Source\PSoC4/I2C_Slave_I2C_SLAVE.c **** * \globalvars
 404:Generated_Source\PSoC4/I2C_Slave_I2C_SLAVE.c **** *  I2C_Slave_slWrBufIndex - used to store current index within slave
 405:Generated_Source\PSoC4/I2C_Slave_I2C_SLAVE.c **** *  write buffer.
 406:Generated_Source\PSoC4/I2C_Slave_I2C_SLAVE.c **** *
 407:Generated_Source\PSoC4/I2C_Slave_I2C_SLAVE.c **** *******************************************************************************/
 408:Generated_Source\PSoC4/I2C_Slave_I2C_SLAVE.c **** void I2C_Slave_I2CSlaveClearWriteBuf(void)
 409:Generated_Source\PSoC4/I2C_Slave_I2C_SLAVE.c **** {
 435              		.loc 1 409 0
 436              		.cfi_startproc
 410:Generated_Source\PSoC4/I2C_Slave_I2C_SLAVE.c ****     I2C_Slave_slWrBufIndex = 0u;
 437              		.loc 1 410 0
 438 0000 0022     		mov	r2, #0
 439 0002 014B     		ldr	r3, .L41
 411:Generated_Source\PSoC4/I2C_Slave_I2C_SLAVE.c **** }
 440              		.loc 1 411 0
 441              		@ sp needed
 410:Generated_Source\PSoC4/I2C_Slave_I2C_SLAVE.c ****     I2C_Slave_slWrBufIndex = 0u;
 442              		.loc 1 410 0
 443 0004 1A60     		str	r2, [r3]
 444              		.loc 1 411 0
 445 0006 7047     		bx	lr
 446              	.L42:
 447              		.align	2
 448              	.L41:
 449 0008 00000000 		.word	I2C_Slave_slWrBufIndex
 450              		.cfi_endproc
 451              	.LFE10:
 452              		.size	I2C_Slave_I2CSlaveClearWriteBuf, .-I2C_Slave_I2CSlaveClearWriteBuf
 453              		.comm	I2C_Slave_slOverFlowCount,1,1
 454              		.comm	I2C_Slave_slRdBufIndexTmp,4,4
 455              		.comm	I2C_Slave_slRdBufIndex,4,4
 456              		.comm	I2C_Slave_slRdBufSize,4,4
 457              		.comm	I2C_Slave_slRdBufPtr,4,4
 458              		.comm	I2C_Slave_slWrBufIndex,4,4
 459              		.comm	I2C_Slave_slWrBufSize,4,4
 460              		.comm	I2C_Slave_slWrBufPtr,4,4
 461              		.comm	I2C_Slave_slStatus,1,1
 462              		.text
 463              	.Letext0:
 464              		.file 2 "Generated_Source\\PSoC4/cytypes.h"
 465              		.file 3 "Generated_Source\\PSoC4/CyLib.h"