ARM GAS  C:\Users\TIMCHE~1\AppData\Local\Temp\ccyX0oX2.s 			page 1


   1              		.cpu cortex-m0
   2              		.fpu softvfp
   3              		.eabi_attribute 20, 1
   4              		.eabi_attribute 21, 1
   5              		.eabi_attribute 23, 3
   6              		.eabi_attribute 24, 1
   7              		.eabi_attribute 25, 1
   8              		.eabi_attribute 26, 1
   9              		.eabi_attribute 30, 4
  10              		.eabi_attribute 34, 0
  11              		.eabi_attribute 18, 4
  12              		.code	16
  13              		.file	"I2C_Slave_I2C_BOOT.c"
  14              		.text
  15              	.Ltext0:
  16              		.cfi_sections	.debug_frame
  17              		.section	.text.I2C_Slave_I2CResposeInsert,"ax",%progbits
  18              		.align	1
  19              		.code	16
  20              		.thumb_func
  21              		.type	I2C_Slave_I2CResposeInsert, %function
  22              	I2C_Slave_I2CResposeInsert:
  23              	.LFB5:
  24              		.file 1 "Generated_Source\\PSoC4\\I2C_Slave_I2C_BOOT.c"
   1:Generated_Source\PSoC4/I2C_Slave_I2C_BOOT.c **** /***************************************************************************//**
   2:Generated_Source\PSoC4/I2C_Slave_I2C_BOOT.c **** * \file I2C_Slave_I2C_BOOT.c
   3:Generated_Source\PSoC4/I2C_Slave_I2C_BOOT.c **** * \version 3.20
   4:Generated_Source\PSoC4/I2C_Slave_I2C_BOOT.c **** *
   5:Generated_Source\PSoC4/I2C_Slave_I2C_BOOT.c **** * \brief
   6:Generated_Source\PSoC4/I2C_Slave_I2C_BOOT.c **** *  This file provides the source code of the bootloader communication APIs
   7:Generated_Source\PSoC4/I2C_Slave_I2C_BOOT.c **** *  for the SCB Component I2C mode.
   8:Generated_Source\PSoC4/I2C_Slave_I2C_BOOT.c **** *
   9:Generated_Source\PSoC4/I2C_Slave_I2C_BOOT.c **** * Note:
  10:Generated_Source\PSoC4/I2C_Slave_I2C_BOOT.c **** *
  11:Generated_Source\PSoC4/I2C_Slave_I2C_BOOT.c **** ********************************************************************************
  12:Generated_Source\PSoC4/I2C_Slave_I2C_BOOT.c **** * \copyright
  13:Generated_Source\PSoC4/I2C_Slave_I2C_BOOT.c **** * Copyright 2013-2016, Cypress Semiconductor Corporation.  All rights reserved.
  14:Generated_Source\PSoC4/I2C_Slave_I2C_BOOT.c **** * You may use this file only in accordance with the license, terms, conditions,
  15:Generated_Source\PSoC4/I2C_Slave_I2C_BOOT.c **** * disclaimers, and limitations in the end user license agreement accompanying
  16:Generated_Source\PSoC4/I2C_Slave_I2C_BOOT.c **** * the software package with which this file was provided.
  17:Generated_Source\PSoC4/I2C_Slave_I2C_BOOT.c **** *******************************************************************************/
  18:Generated_Source\PSoC4/I2C_Slave_I2C_BOOT.c **** 
  19:Generated_Source\PSoC4/I2C_Slave_I2C_BOOT.c **** #include "I2C_Slave_BOOT.h"
  20:Generated_Source\PSoC4/I2C_Slave_I2C_BOOT.c **** #include "I2C_Slave_I2C_PVT.h"
  21:Generated_Source\PSoC4/I2C_Slave_I2C_BOOT.c **** 
  22:Generated_Source\PSoC4/I2C_Slave_I2C_BOOT.c **** #if defined(CYDEV_BOOTLOADER_IO_COMP) && (I2C_Slave_I2C_BTLDR_COMM_ENABLED)
  23:Generated_Source\PSoC4/I2C_Slave_I2C_BOOT.c **** 
  24:Generated_Source\PSoC4/I2C_Slave_I2C_BOOT.c **** /***************************************
  25:Generated_Source\PSoC4/I2C_Slave_I2C_BOOT.c **** *    Private I/O Component Vars
  26:Generated_Source\PSoC4/I2C_Slave_I2C_BOOT.c **** ***************************************/
  27:Generated_Source\PSoC4/I2C_Slave_I2C_BOOT.c **** 
  28:Generated_Source\PSoC4/I2C_Slave_I2C_BOOT.c **** /* Writes to this buffer */
  29:Generated_Source\PSoC4/I2C_Slave_I2C_BOOT.c **** static uint8 I2C_Slave_slReadBuf[I2C_Slave_I2C_BTLDR_SIZEOF_READ_BUFFER];
  30:Generated_Source\PSoC4/I2C_Slave_I2C_BOOT.c **** 
  31:Generated_Source\PSoC4/I2C_Slave_I2C_BOOT.c **** /* Reads from this buffer */
  32:Generated_Source\PSoC4/I2C_Slave_I2C_BOOT.c **** static uint8 I2C_Slave_slWriteBuf[I2C_Slave_I2C_BTLDR_SIZEOF_WRITE_BUFFER];
  33:Generated_Source\PSoC4/I2C_Slave_I2C_BOOT.c **** 
ARM GAS  C:\Users\TIMCHE~1\AppData\Local\Temp\ccyX0oX2.s 			page 2


  34:Generated_Source\PSoC4/I2C_Slave_I2C_BOOT.c **** /* Flag to release buffer to be read */
  35:Generated_Source\PSoC4/I2C_Slave_I2C_BOOT.c **** static uint32 I2C_Slave_applyBuffer;
  36:Generated_Source\PSoC4/I2C_Slave_I2C_BOOT.c **** 
  37:Generated_Source\PSoC4/I2C_Slave_I2C_BOOT.c **** 
  38:Generated_Source\PSoC4/I2C_Slave_I2C_BOOT.c **** /***************************************
  39:Generated_Source\PSoC4/I2C_Slave_I2C_BOOT.c **** *    Private Function Prototypes
  40:Generated_Source\PSoC4/I2C_Slave_I2C_BOOT.c **** ***************************************/
  41:Generated_Source\PSoC4/I2C_Slave_I2C_BOOT.c **** 
  42:Generated_Source\PSoC4/I2C_Slave_I2C_BOOT.c **** static void I2C_Slave_I2CResposeInsert(void);
  43:Generated_Source\PSoC4/I2C_Slave_I2C_BOOT.c **** 
  44:Generated_Source\PSoC4/I2C_Slave_I2C_BOOT.c **** 
  45:Generated_Source\PSoC4/I2C_Slave_I2C_BOOT.c **** /*******************************************************************************
  46:Generated_Source\PSoC4/I2C_Slave_I2C_BOOT.c **** * Function Name: I2C_Slave_I2CCyBtldrCommStart
  47:Generated_Source\PSoC4/I2C_Slave_I2C_BOOT.c **** ****************************************************************************//**
  48:Generated_Source\PSoC4/I2C_Slave_I2C_BOOT.c **** *
  49:Generated_Source\PSoC4/I2C_Slave_I2C_BOOT.c **** *  Starts the I2C component and enables its interrupt.
  50:Generated_Source\PSoC4/I2C_Slave_I2C_BOOT.c **** *  Every incoming I2C write transaction is treated as a command for the
  51:Generated_Source\PSoC4/I2C_Slave_I2C_BOOT.c **** *  bootloader.
  52:Generated_Source\PSoC4/I2C_Slave_I2C_BOOT.c **** *  Every incoming I2C read transaction returns 0xFF until the bootloader
  53:Generated_Source\PSoC4/I2C_Slave_I2C_BOOT.c **** *  provides a response to the executed command.
  54:Generated_Source\PSoC4/I2C_Slave_I2C_BOOT.c **** *
  55:Generated_Source\PSoC4/I2C_Slave_I2C_BOOT.c **** * \globalvars
  56:Generated_Source\PSoC4/I2C_Slave_I2C_BOOT.c **** *  I2C_Slave_applyBuffer - the flag to release the buffer with a response
  57:Generated_Source\PSoC4/I2C_Slave_I2C_BOOT.c **** *  to be read by the host.
  58:Generated_Source\PSoC4/I2C_Slave_I2C_BOOT.c **** *
  59:Generated_Source\PSoC4/I2C_Slave_I2C_BOOT.c **** *******************************************************************************/
  60:Generated_Source\PSoC4/I2C_Slave_I2C_BOOT.c **** void I2C_Slave_I2CCyBtldrCommStart(void)
  61:Generated_Source\PSoC4/I2C_Slave_I2C_BOOT.c **** {
  62:Generated_Source\PSoC4/I2C_Slave_I2C_BOOT.c ****     I2C_Slave_I2CSlaveInitWriteBuf(I2C_Slave_slWriteBuf, I2C_Slave_I2C_BTLDR_SIZEOF_WRITE_BUFFER);
  63:Generated_Source\PSoC4/I2C_Slave_I2C_BOOT.c ****     I2C_Slave_I2CSlaveInitReadBuf (I2C_Slave_slReadBuf, 0u);
  64:Generated_Source\PSoC4/I2C_Slave_I2C_BOOT.c **** 
  65:Generated_Source\PSoC4/I2C_Slave_I2C_BOOT.c ****     I2C_Slave_SetCustomInterruptHandler(&I2C_Slave_I2CResposeInsert);
  66:Generated_Source\PSoC4/I2C_Slave_I2C_BOOT.c ****     I2C_Slave_applyBuffer = 0u;
  67:Generated_Source\PSoC4/I2C_Slave_I2C_BOOT.c **** 
  68:Generated_Source\PSoC4/I2C_Slave_I2C_BOOT.c ****     I2C_Slave_Start();
  69:Generated_Source\PSoC4/I2C_Slave_I2C_BOOT.c **** }
  70:Generated_Source\PSoC4/I2C_Slave_I2C_BOOT.c **** 
  71:Generated_Source\PSoC4/I2C_Slave_I2C_BOOT.c **** 
  72:Generated_Source\PSoC4/I2C_Slave_I2C_BOOT.c **** /*******************************************************************************
  73:Generated_Source\PSoC4/I2C_Slave_I2C_BOOT.c **** * Function Name: I2C_Slave_I2CCyBtldrCommStop
  74:Generated_Source\PSoC4/I2C_Slave_I2C_BOOT.c **** ****************************************************************************//**
  75:Generated_Source\PSoC4/I2C_Slave_I2C_BOOT.c **** *
  76:Generated_Source\PSoC4/I2C_Slave_I2C_BOOT.c **** *  Disables the I2C component.
  77:Generated_Source\PSoC4/I2C_Slave_I2C_BOOT.c **** *
  78:Generated_Source\PSoC4/I2C_Slave_I2C_BOOT.c **** *******************************************************************************/
  79:Generated_Source\PSoC4/I2C_Slave_I2C_BOOT.c **** void I2C_Slave_I2CCyBtldrCommStop(void)
  80:Generated_Source\PSoC4/I2C_Slave_I2C_BOOT.c **** {
  81:Generated_Source\PSoC4/I2C_Slave_I2C_BOOT.c ****     I2C_Slave_Stop();
  82:Generated_Source\PSoC4/I2C_Slave_I2C_BOOT.c **** }
  83:Generated_Source\PSoC4/I2C_Slave_I2C_BOOT.c **** 
  84:Generated_Source\PSoC4/I2C_Slave_I2C_BOOT.c **** 
  85:Generated_Source\PSoC4/I2C_Slave_I2C_BOOT.c **** /*******************************************************************************
  86:Generated_Source\PSoC4/I2C_Slave_I2C_BOOT.c **** * Function Name: I2C_Slave_I2CCyBtldrCommReset
  87:Generated_Source\PSoC4/I2C_Slave_I2C_BOOT.c **** ****************************************************************************//**
  88:Generated_Source\PSoC4/I2C_Slave_I2C_BOOT.c **** *
  89:Generated_Source\PSoC4/I2C_Slave_I2C_BOOT.c **** *  Resets read and write I2C buffers to the initial state and resets the slave
  90:Generated_Source\PSoC4/I2C_Slave_I2C_BOOT.c **** *  status.
ARM GAS  C:\Users\TIMCHE~1\AppData\Local\Temp\ccyX0oX2.s 			page 3


  91:Generated_Source\PSoC4/I2C_Slave_I2C_BOOT.c **** *
  92:Generated_Source\PSoC4/I2C_Slave_I2C_BOOT.c **** * \globalvars
  93:Generated_Source\PSoC4/I2C_Slave_I2C_BOOT.c **** *  I2C_Slave_slRdBufSize - used to store slave read buffer size.
  94:Generated_Source\PSoC4/I2C_Slave_I2C_BOOT.c **** *  I2C_Slave_slRdBufIndex - used to store the current index within the
  95:Generated_Source\PSoC4/I2C_Slave_I2C_BOOT.c **** *  slave read buffer.
  96:Generated_Source\PSoC4/I2C_Slave_I2C_BOOT.c **** *  I2C_Slave_slWrBufIndex - used to store current index within slave
  97:Generated_Source\PSoC4/I2C_Slave_I2C_BOOT.c **** *  write buffer.
  98:Generated_Source\PSoC4/I2C_Slave_I2C_BOOT.c **** *  I2C_Slave_slStatus  - used to store current status of I2C slave.
  99:Generated_Source\PSoC4/I2C_Slave_I2C_BOOT.c **** *
 100:Generated_Source\PSoC4/I2C_Slave_I2C_BOOT.c **** *******************************************************************************/
 101:Generated_Source\PSoC4/I2C_Slave_I2C_BOOT.c **** void I2C_Slave_I2CCyBtldrCommReset(void)
 102:Generated_Source\PSoC4/I2C_Slave_I2C_BOOT.c **** {
 103:Generated_Source\PSoC4/I2C_Slave_I2C_BOOT.c ****     /* Make read buffer full */
 104:Generated_Source\PSoC4/I2C_Slave_I2C_BOOT.c ****     I2C_Slave_slRdBufSize = 0u;
 105:Generated_Source\PSoC4/I2C_Slave_I2C_BOOT.c **** 
 106:Generated_Source\PSoC4/I2C_Slave_I2C_BOOT.c ****     /* Reset write buffer and Read buffer */
 107:Generated_Source\PSoC4/I2C_Slave_I2C_BOOT.c ****     I2C_Slave_slRdBufIndex = 0u;
 108:Generated_Source\PSoC4/I2C_Slave_I2C_BOOT.c ****     I2C_Slave_slWrBufIndex = 0u;
 109:Generated_Source\PSoC4/I2C_Slave_I2C_BOOT.c **** 
 110:Generated_Source\PSoC4/I2C_Slave_I2C_BOOT.c ****     /* Clear read and write status */
 111:Generated_Source\PSoC4/I2C_Slave_I2C_BOOT.c ****     I2C_Slave_slStatus = 0u;
 112:Generated_Source\PSoC4/I2C_Slave_I2C_BOOT.c **** }
 113:Generated_Source\PSoC4/I2C_Slave_I2C_BOOT.c **** 
 114:Generated_Source\PSoC4/I2C_Slave_I2C_BOOT.c **** 
 115:Generated_Source\PSoC4/I2C_Slave_I2C_BOOT.c **** /*******************************************************************************
 116:Generated_Source\PSoC4/I2C_Slave_I2C_BOOT.c **** * Function Name: I2C_Slave_I2CCyBtldrCommRead
 117:Generated_Source\PSoC4/I2C_Slave_I2C_BOOT.c **** ****************************************************************************//**
 118:Generated_Source\PSoC4/I2C_Slave_I2C_BOOT.c **** *
 119:Generated_Source\PSoC4/I2C_Slave_I2C_BOOT.c **** *  Allows the caller to read data from the bootloader host (the host writes the
 120:Generated_Source\PSoC4/I2C_Slave_I2C_BOOT.c **** *  data). The function handles polling to allow a block of data to be completely
 121:Generated_Source\PSoC4/I2C_Slave_I2C_BOOT.c **** *  received from the host device.
 122:Generated_Source\PSoC4/I2C_Slave_I2C_BOOT.c **** *
 123:Generated_Source\PSoC4/I2C_Slave_I2C_BOOT.c **** *  \param pData: Pointer to storage for the block of data to be read from the
 124:Generated_Source\PSoC4/I2C_Slave_I2C_BOOT.c **** *   bootloader host
 125:Generated_Source\PSoC4/I2C_Slave_I2C_BOOT.c **** *  \param size: Number of bytes to be read.
 126:Generated_Source\PSoC4/I2C_Slave_I2C_BOOT.c **** *  \param count: Pointer to the variable to write the number of bytes actually
 127:Generated_Source\PSoC4/I2C_Slave_I2C_BOOT.c **** *   read.
 128:Generated_Source\PSoC4/I2C_Slave_I2C_BOOT.c **** *  \param timeOut: Number of units in 10 ms to wait before returning
 129:Generated_Source\PSoC4/I2C_Slave_I2C_BOOT.c **** *   because of a timeout.
 130:Generated_Source\PSoC4/I2C_Slave_I2C_BOOT.c **** *
 131:Generated_Source\PSoC4/I2C_Slave_I2C_BOOT.c **** *  \return
 132:Generated_Source\PSoC4/I2C_Slave_I2C_BOOT.c **** *   Returns CYRET_SUCCESS if no problem was encountered or returns the value
 133:Generated_Source\PSoC4/I2C_Slave_I2C_BOOT.c **** *   that best describes the problem. For more information refer to the
 134:Generated_Source\PSoC4/I2C_Slave_I2C_BOOT.c **** *   "Return Codes" section of the System Reference Guide.
 135:Generated_Source\PSoC4/I2C_Slave_I2C_BOOT.c **** *
 136:Generated_Source\PSoC4/I2C_Slave_I2C_BOOT.c **** * \globalvars
 137:Generated_Source\PSoC4/I2C_Slave_I2C_BOOT.c **** *  I2C_Slave_slStatus  - used to store current status of I2C slave.
 138:Generated_Source\PSoC4/I2C_Slave_I2C_BOOT.c **** *  I2C_Slave_slWriteBuf - used to store received command.
 139:Generated_Source\PSoC4/I2C_Slave_I2C_BOOT.c **** *  I2C_Slave_slWrBufIndex - used to store current index within slave
 140:Generated_Source\PSoC4/I2C_Slave_I2C_BOOT.c **** *  write buffer.
 141:Generated_Source\PSoC4/I2C_Slave_I2C_BOOT.c **** *
 142:Generated_Source\PSoC4/I2C_Slave_I2C_BOOT.c **** *******************************************************************************/
 143:Generated_Source\PSoC4/I2C_Slave_I2C_BOOT.c **** cystatus I2C_Slave_I2CCyBtldrCommRead(uint8 pData[], uint16 size, uint16 * count, uint8 timeOut)
 144:Generated_Source\PSoC4/I2C_Slave_I2C_BOOT.c **** {
 145:Generated_Source\PSoC4/I2C_Slave_I2C_BOOT.c ****     cystatus status;
 146:Generated_Source\PSoC4/I2C_Slave_I2C_BOOT.c ****     uint32 timeoutMs;
 147:Generated_Source\PSoC4/I2C_Slave_I2C_BOOT.c **** 
ARM GAS  C:\Users\TIMCHE~1\AppData\Local\Temp\ccyX0oX2.s 			page 4


 148:Generated_Source\PSoC4/I2C_Slave_I2C_BOOT.c ****     status = CYRET_BAD_PARAM;
 149:Generated_Source\PSoC4/I2C_Slave_I2C_BOOT.c **** 
 150:Generated_Source\PSoC4/I2C_Slave_I2C_BOOT.c ****     if ((NULL != pData) && (size > 0u))
 151:Generated_Source\PSoC4/I2C_Slave_I2C_BOOT.c ****     {
 152:Generated_Source\PSoC4/I2C_Slave_I2C_BOOT.c ****         status = CYRET_TIMEOUT;
 153:Generated_Source\PSoC4/I2C_Slave_I2C_BOOT.c ****         timeoutMs = ((uint32) 10u * timeOut); /* Convert from 10mS check to 1mS checks */
 154:Generated_Source\PSoC4/I2C_Slave_I2C_BOOT.c **** 
 155:Generated_Source\PSoC4/I2C_Slave_I2C_BOOT.c ****         while (0u != timeoutMs)
 156:Generated_Source\PSoC4/I2C_Slave_I2C_BOOT.c ****         {
 157:Generated_Source\PSoC4/I2C_Slave_I2C_BOOT.c ****             /* Check if host complete write */
 158:Generated_Source\PSoC4/I2C_Slave_I2C_BOOT.c ****             if (0u != (I2C_Slave_I2C_SSTAT_WR_CMPLT & I2C_Slave_slStatus))
 159:Generated_Source\PSoC4/I2C_Slave_I2C_BOOT.c ****             {
 160:Generated_Source\PSoC4/I2C_Slave_I2C_BOOT.c ****                 /* Copy number of written bytes */
 161:Generated_Source\PSoC4/I2C_Slave_I2C_BOOT.c ****                 *count = (uint16) I2C_Slave_slWrBufIndex;
 162:Generated_Source\PSoC4/I2C_Slave_I2C_BOOT.c **** 
 163:Generated_Source\PSoC4/I2C_Slave_I2C_BOOT.c ****                 /* Clear slave status and write index */
 164:Generated_Source\PSoC4/I2C_Slave_I2C_BOOT.c ****                 I2C_Slave_slStatus = 0u;
 165:Generated_Source\PSoC4/I2C_Slave_I2C_BOOT.c ****                 I2C_Slave_slWrBufIndex = 0u;
 166:Generated_Source\PSoC4/I2C_Slave_I2C_BOOT.c **** 
 167:Generated_Source\PSoC4/I2C_Slave_I2C_BOOT.c ****                 /* Copy command into bootloader buffer */
 168:Generated_Source\PSoC4/I2C_Slave_I2C_BOOT.c ****                 (void) memcpy((void *) pData, (const void *) I2C_Slave_slWriteBuf,
 169:Generated_Source\PSoC4/I2C_Slave_I2C_BOOT.c ****                                               I2C_Slave_BYTES_TO_COPY(*count, size));
 170:Generated_Source\PSoC4/I2C_Slave_I2C_BOOT.c **** 
 171:Generated_Source\PSoC4/I2C_Slave_I2C_BOOT.c ****                 status = CYRET_SUCCESS;
 172:Generated_Source\PSoC4/I2C_Slave_I2C_BOOT.c ****                 break;
 173:Generated_Source\PSoC4/I2C_Slave_I2C_BOOT.c ****             }
 174:Generated_Source\PSoC4/I2C_Slave_I2C_BOOT.c **** 
 175:Generated_Source\PSoC4/I2C_Slave_I2C_BOOT.c ****             CyDelay(I2C_Slave_WAIT_1_MS);
 176:Generated_Source\PSoC4/I2C_Slave_I2C_BOOT.c ****             --timeoutMs;
 177:Generated_Source\PSoC4/I2C_Slave_I2C_BOOT.c ****         }
 178:Generated_Source\PSoC4/I2C_Slave_I2C_BOOT.c ****     }
 179:Generated_Source\PSoC4/I2C_Slave_I2C_BOOT.c **** 
 180:Generated_Source\PSoC4/I2C_Slave_I2C_BOOT.c ****     return(status);
 181:Generated_Source\PSoC4/I2C_Slave_I2C_BOOT.c **** }
 182:Generated_Source\PSoC4/I2C_Slave_I2C_BOOT.c **** 
 183:Generated_Source\PSoC4/I2C_Slave_I2C_BOOT.c **** 
 184:Generated_Source\PSoC4/I2C_Slave_I2C_BOOT.c **** /*******************************************************************************
 185:Generated_Source\PSoC4/I2C_Slave_I2C_BOOT.c **** * Function Name: I2C_Slave_I2CCyBtldrCommWrite
 186:Generated_Source\PSoC4/I2C_Slave_I2C_BOOT.c **** ****************************************************************************//**
 187:Generated_Source\PSoC4/I2C_Slave_I2C_BOOT.c **** *
 188:Generated_Source\PSoC4/I2C_Slave_I2C_BOOT.c **** *  Allows the caller to write data to the bootloader host (the host reads the
 189:Generated_Source\PSoC4/I2C_Slave_I2C_BOOT.c **** *  data). The function does not use timeout and returns after data has been
 190:Generated_Source\PSoC4/I2C_Slave_I2C_BOOT.c **** *  copied into the slave read buffer. This data is available to be read by the
 191:Generated_Source\PSoC4/I2C_Slave_I2C_BOOT.c **** *  bootloader host until following host data write.
 192:Generated_Source\PSoC4/I2C_Slave_I2C_BOOT.c **** *
 193:Generated_Source\PSoC4/I2C_Slave_I2C_BOOT.c **** *  \param pData: Pointer to the block of data to be written to the bootloader
 194:Generated_Source\PSoC4/I2C_Slave_I2C_BOOT.c **** *   host.
 195:Generated_Source\PSoC4/I2C_Slave_I2C_BOOT.c **** *  \param size: Number of bytes to be written.
 196:Generated_Source\PSoC4/I2C_Slave_I2C_BOOT.c **** *  \param count: Pointer to the variable to write the number of bytes actually
 197:Generated_Source\PSoC4/I2C_Slave_I2C_BOOT.c **** *   written.
 198:Generated_Source\PSoC4/I2C_Slave_I2C_BOOT.c **** *  \param timeOut: Number of units in 10 ms to wait before returning
 199:Generated_Source\PSoC4/I2C_Slave_I2C_BOOT.c **** *   because of a timeout.
 200:Generated_Source\PSoC4/I2C_Slave_I2C_BOOT.c **** *
 201:Generated_Source\PSoC4/I2C_Slave_I2C_BOOT.c **** *  \return
 202:Generated_Source\PSoC4/I2C_Slave_I2C_BOOT.c **** *   Returns CYRET_SUCCESS if no problem was encountered or returns the value
 203:Generated_Source\PSoC4/I2C_Slave_I2C_BOOT.c **** *   that best describes the problem. For more information refer to the
 204:Generated_Source\PSoC4/I2C_Slave_I2C_BOOT.c **** *   "Return Codes" section of the System Reference Guide.
ARM GAS  C:\Users\TIMCHE~1\AppData\Local\Temp\ccyX0oX2.s 			page 5


 205:Generated_Source\PSoC4/I2C_Slave_I2C_BOOT.c **** *
 206:Generated_Source\PSoC4/I2C_Slave_I2C_BOOT.c **** * \globalvars
 207:Generated_Source\PSoC4/I2C_Slave_I2C_BOOT.c **** *  I2C_Slave_applyBuffer - the flag to release the buffer with
 208:Generated_Source\PSoC4/I2C_Slave_I2C_BOOT.c **** *  to be read by the host.
 209:Generated_Source\PSoC4/I2C_Slave_I2C_BOOT.c **** *
 210:Generated_Source\PSoC4/I2C_Slave_I2C_BOOT.c **** *******************************************************************************/
 211:Generated_Source\PSoC4/I2C_Slave_I2C_BOOT.c **** cystatus I2C_Slave_I2CCyBtldrCommWrite(const uint8 pData[], uint16 size, uint16 * count, uint8 time
 212:Generated_Source\PSoC4/I2C_Slave_I2C_BOOT.c **** {
 213:Generated_Source\PSoC4/I2C_Slave_I2C_BOOT.c ****     cystatus status;
 214:Generated_Source\PSoC4/I2C_Slave_I2C_BOOT.c **** 
 215:Generated_Source\PSoC4/I2C_Slave_I2C_BOOT.c ****     status = CYRET_BAD_PARAM;
 216:Generated_Source\PSoC4/I2C_Slave_I2C_BOOT.c **** 
 217:Generated_Source\PSoC4/I2C_Slave_I2C_BOOT.c ****     if ((NULL != pData) && (size > 0u))
 218:Generated_Source\PSoC4/I2C_Slave_I2C_BOOT.c ****     {
 219:Generated_Source\PSoC4/I2C_Slave_I2C_BOOT.c ****         /* Copy response into read buffer */
 220:Generated_Source\PSoC4/I2C_Slave_I2C_BOOT.c ****         *count = size;
 221:Generated_Source\PSoC4/I2C_Slave_I2C_BOOT.c ****         (void) memcpy((void *) I2C_Slave_slReadBuf, (const void *) pData, (uint32) size);
 222:Generated_Source\PSoC4/I2C_Slave_I2C_BOOT.c **** 
 223:Generated_Source\PSoC4/I2C_Slave_I2C_BOOT.c ****         /* Read buffer is ready to be released to host */
 224:Generated_Source\PSoC4/I2C_Slave_I2C_BOOT.c ****         I2C_Slave_applyBuffer = (uint32) size;
 225:Generated_Source\PSoC4/I2C_Slave_I2C_BOOT.c **** 
 226:Generated_Source\PSoC4/I2C_Slave_I2C_BOOT.c ****         if (0u != timeOut)
 227:Generated_Source\PSoC4/I2C_Slave_I2C_BOOT.c ****         {
 228:Generated_Source\PSoC4/I2C_Slave_I2C_BOOT.c ****             /* Suppress compiler warning */
 229:Generated_Source\PSoC4/I2C_Slave_I2C_BOOT.c ****         }
 230:Generated_Source\PSoC4/I2C_Slave_I2C_BOOT.c **** 
 231:Generated_Source\PSoC4/I2C_Slave_I2C_BOOT.c ****         status = CYRET_SUCCESS;
 232:Generated_Source\PSoC4/I2C_Slave_I2C_BOOT.c ****     }
 233:Generated_Source\PSoC4/I2C_Slave_I2C_BOOT.c **** 
 234:Generated_Source\PSoC4/I2C_Slave_I2C_BOOT.c ****     return(status);
 235:Generated_Source\PSoC4/I2C_Slave_I2C_BOOT.c **** }
 236:Generated_Source\PSoC4/I2C_Slave_I2C_BOOT.c **** 
 237:Generated_Source\PSoC4/I2C_Slave_I2C_BOOT.c **** 
 238:Generated_Source\PSoC4/I2C_Slave_I2C_BOOT.c **** /*******************************************************************************
 239:Generated_Source\PSoC4/I2C_Slave_I2C_BOOT.c **** * Function Name: I2C_Slave_I2CResposeInsert
 240:Generated_Source\PSoC4/I2C_Slave_I2C_BOOT.c **** ****************************************************************************//**
 241:Generated_Source\PSoC4/I2C_Slave_I2C_BOOT.c **** *
 242:Generated_Source\PSoC4/I2C_Slave_I2C_BOOT.c **** *  Releases the read buffer to be read when a response is copied to the buffer
 243:Generated_Source\PSoC4/I2C_Slave_I2C_BOOT.c **** *  and a new read transaction starts.
 244:Generated_Source\PSoC4/I2C_Slave_I2C_BOOT.c **** *  Closes the read buffer when write transaction is started.
 245:Generated_Source\PSoC4/I2C_Slave_I2C_BOOT.c **** *
 246:Generated_Source\PSoC4/I2C_Slave_I2C_BOOT.c **** * \globalvars
 247:Generated_Source\PSoC4/I2C_Slave_I2C_BOOT.c **** *  I2C_Slave_applyBuffer - the flag to release the buffer with a response
 248:Generated_Source\PSoC4/I2C_Slave_I2C_BOOT.c **** *  to be read by the host.
 249:Generated_Source\PSoC4/I2C_Slave_I2C_BOOT.c **** *
 250:Generated_Source\PSoC4/I2C_Slave_I2C_BOOT.c **** *******************************************************************************/
 251:Generated_Source\PSoC4/I2C_Slave_I2C_BOOT.c **** static void I2C_Slave_I2CResposeInsert(void)
 252:Generated_Source\PSoC4/I2C_Slave_I2C_BOOT.c **** {
  25              		.loc 1 252 0
  26              		.cfi_startproc
 253:Generated_Source\PSoC4/I2C_Slave_I2C_BOOT.c ****     if (I2C_Slave_CHECK_INTR_SLAVE_MASKED(I2C_Slave_INTR_SLAVE_I2C_ADDR_MATCH))
  27              		.loc 1 253 0
  28 0000 0D4B     		ldr	r3, .L12
  29 0002 1B68     		ldr	r3, [r3]
  30 0004 5B06     		lsl	r3, r3, #25
  31 0006 15D5     		bpl	.L1
 254:Generated_Source\PSoC4/I2C_Slave_I2C_BOOT.c ****     {
ARM GAS  C:\Users\TIMCHE~1\AppData\Local\Temp\ccyX0oX2.s 			page 6


 255:Generated_Source\PSoC4/I2C_Slave_I2C_BOOT.c ****         if (I2C_Slave_CHECK_I2C_STATUS(I2C_Slave_I2C_STATUS_S_READ))
  32              		.loc 1 255 0
  33 0008 0C4B     		ldr	r3, .L12+4
  34 000a 1B68     		ldr	r3, [r3]
  35 000c DB06     		lsl	r3, r3, #27
  36 000e 09D5     		bpl	.L3
  37              	.LBB4:
 256:Generated_Source\PSoC4/I2C_Slave_I2C_BOOT.c ****         {
 257:Generated_Source\PSoC4/I2C_Slave_I2C_BOOT.c ****             /* Address phase, host reads: release read buffer */
 258:Generated_Source\PSoC4/I2C_Slave_I2C_BOOT.c ****             if (0u != I2C_Slave_applyBuffer)
  38              		.loc 1 258 0
  39 0010 0B4B     		ldr	r3, .L12+8
  40 0012 1A68     		ldr	r2, [r3]
  41 0014 002A     		cmp	r2, #0
  42 0016 0DD0     		beq	.L1
 259:Generated_Source\PSoC4/I2C_Slave_I2C_BOOT.c ****             {
 260:Generated_Source\PSoC4/I2C_Slave_I2C_BOOT.c ****                 I2C_Slave_slRdBufSize  = I2C_Slave_applyBuffer;
  43              		.loc 1 260 0
  44 0018 0A49     		ldr	r1, .L12+12
  45 001a 0A60     		str	r2, [r1]
 261:Generated_Source\PSoC4/I2C_Slave_I2C_BOOT.c ****                 I2C_Slave_slRdBufIndex = 0u;
  46              		.loc 1 261 0
  47 001c 0022     		mov	r2, #0
  48 001e 0A49     		ldr	r1, .L12+16
  49 0020 0A60     		str	r2, [r1]
  50 0022 06E0     		b	.L10
  51              	.L3:
  52              	.LBE4:
 262:Generated_Source\PSoC4/I2C_Slave_I2C_BOOT.c ****                 I2C_Slave_applyBuffer  = 0u;
 263:Generated_Source\PSoC4/I2C_Slave_I2C_BOOT.c ****             }
 264:Generated_Source\PSoC4/I2C_Slave_I2C_BOOT.c ****         }
 265:Generated_Source\PSoC4/I2C_Slave_I2C_BOOT.c ****         else
 266:Generated_Source\PSoC4/I2C_Slave_I2C_BOOT.c ****         {
 267:Generated_Source\PSoC4/I2C_Slave_I2C_BOOT.c ****             /* Address phase, host writes: close read buffer */
 268:Generated_Source\PSoC4/I2C_Slave_I2C_BOOT.c ****             if (I2C_Slave_slRdBufIndex != I2C_Slave_slRdBufSize)
  53              		.loc 1 268 0
  54 0024 084B     		ldr	r3, .L12+16
  55 0026 074A     		ldr	r2, .L12+12
  56 0028 1868     		ldr	r0, [r3]
  57 002a 1168     		ldr	r1, [r2]
  58 002c 8842     		cmp	r0, r1
  59 002e 01D0     		beq	.L1
 269:Generated_Source\PSoC4/I2C_Slave_I2C_BOOT.c ****             {
 270:Generated_Source\PSoC4/I2C_Slave_I2C_BOOT.c ****                 I2C_Slave_slRdBufIndex = I2C_Slave_slRdBufSize;
  60              		.loc 1 270 0
  61 0030 1268     		ldr	r2, [r2]
  62              	.L10:
  63 0032 1A60     		str	r2, [r3]
  64              	.L1:
 271:Generated_Source\PSoC4/I2C_Slave_I2C_BOOT.c ****             }
 272:Generated_Source\PSoC4/I2C_Slave_I2C_BOOT.c ****         }
 273:Generated_Source\PSoC4/I2C_Slave_I2C_BOOT.c ****     }
 274:Generated_Source\PSoC4/I2C_Slave_I2C_BOOT.c **** }
  65              		.loc 1 274 0
  66              		@ sp needed
  67 0034 7047     		bx	lr
  68              	.L13:
ARM GAS  C:\Users\TIMCHE~1\AppData\Local\Temp\ccyX0oX2.s 			page 7


  69 0036 C046     		.align	2
  70              	.L12:
  71 0038 4C0F0640 		.word	1074138956
  72 003c 64000640 		.word	1074135140
  73 0040 00000000 		.word	.LANCHOR0
  74 0044 00000000 		.word	I2C_Slave_slRdBufSize
  75 0048 00000000 		.word	I2C_Slave_slRdBufIndex
  76              		.cfi_endproc
  77              	.LFE5:
  78              		.size	I2C_Slave_I2CResposeInsert, .-I2C_Slave_I2CResposeInsert
  79              		.section	.text.I2C_Slave_I2CCyBtldrCommStart,"ax",%progbits
  80              		.align	1
  81              		.global	I2C_Slave_I2CCyBtldrCommStart
  82              		.code	16
  83              		.thumb_func
  84              		.type	I2C_Slave_I2CCyBtldrCommStart, %function
  85              	I2C_Slave_I2CCyBtldrCommStart:
  86              	.LFB0:
  61:Generated_Source\PSoC4/I2C_Slave_I2C_BOOT.c ****     I2C_Slave_I2CSlaveInitWriteBuf(I2C_Slave_slWriteBuf, I2C_Slave_I2C_BTLDR_SIZEOF_WRITE_BUFFER);
  87              		.loc 1 61 0
  88              		.cfi_startproc
  89 0000 10B5     		push	{r4, lr}
  90              		.cfi_def_cfa_offset 8
  91              		.cfi_offset 4, -8
  92              		.cfi_offset 14, -4
  62:Generated_Source\PSoC4/I2C_Slave_I2C_BOOT.c ****     I2C_Slave_I2CSlaveInitReadBuf (I2C_Slave_slReadBuf, 0u);
  93              		.loc 1 62 0
  94 0002 094C     		ldr	r4, .L15
  95 0004 4021     		mov	r1, #64
  96 0006 201D     		add	r0, r4, #4
  97 0008 FFF7FEFF 		bl	I2C_Slave_I2CSlaveInitWriteBuf
  98              	.LVL0:
  63:Generated_Source\PSoC4/I2C_Slave_I2C_BOOT.c **** 
  99              		.loc 1 63 0
 100 000c 201C     		mov	r0, r4
 101 000e 0021     		mov	r1, #0
 102 0010 4430     		add	r0, r0, #68
 103 0012 FFF7FEFF 		bl	I2C_Slave_I2CSlaveInitReadBuf
 104              	.LVL1:
  65:Generated_Source\PSoC4/I2C_Slave_I2C_BOOT.c ****     I2C_Slave_applyBuffer = 0u;
 105              		.loc 1 65 0
 106 0016 0548     		ldr	r0, .L15+4
 107 0018 FFF7FEFF 		bl	I2C_Slave_SetCustomInterruptHandler
 108              	.LVL2:
  66:Generated_Source\PSoC4/I2C_Slave_I2C_BOOT.c **** 
 109              		.loc 1 66 0
 110 001c 0023     		mov	r3, #0
  69:Generated_Source\PSoC4/I2C_Slave_I2C_BOOT.c **** 
 111              		.loc 1 69 0
 112              		@ sp needed
  66:Generated_Source\PSoC4/I2C_Slave_I2C_BOOT.c **** 
 113              		.loc 1 66 0
 114 001e 2360     		str	r3, [r4]
  68:Generated_Source\PSoC4/I2C_Slave_I2C_BOOT.c **** }
 115              		.loc 1 68 0
 116 0020 FFF7FEFF 		bl	I2C_Slave_Start
 117              	.LVL3:
ARM GAS  C:\Users\TIMCHE~1\AppData\Local\Temp\ccyX0oX2.s 			page 8


  69:Generated_Source\PSoC4/I2C_Slave_I2C_BOOT.c **** 
 118              		.loc 1 69 0
 119 0024 10BD     		pop	{r4, pc}
 120              	.L16:
 121 0026 C046     		.align	2
 122              	.L15:
 123 0028 00000000 		.word	.LANCHOR0
 124 002c 00000000 		.word	I2C_Slave_I2CResposeInsert
 125              		.cfi_endproc
 126              	.LFE0:
 127              		.size	I2C_Slave_I2CCyBtldrCommStart, .-I2C_Slave_I2CCyBtldrCommStart
 128              		.section	.text.I2C_Slave_I2CCyBtldrCommStop,"ax",%progbits
 129              		.align	1
 130              		.global	I2C_Slave_I2CCyBtldrCommStop
 131              		.code	16
 132              		.thumb_func
 133              		.type	I2C_Slave_I2CCyBtldrCommStop, %function
 134              	I2C_Slave_I2CCyBtldrCommStop:
 135              	.LFB1:
  80:Generated_Source\PSoC4/I2C_Slave_I2C_BOOT.c ****     I2C_Slave_Stop();
 136              		.loc 1 80 0
 137              		.cfi_startproc
 138 0000 08B5     		push	{r3, lr}
 139              		.cfi_def_cfa_offset 8
 140              		.cfi_offset 3, -8
 141              		.cfi_offset 14, -4
  81:Generated_Source\PSoC4/I2C_Slave_I2C_BOOT.c **** }
 142              		.loc 1 81 0
 143 0002 FFF7FEFF 		bl	I2C_Slave_Stop
 144              	.LVL4:
  82:Generated_Source\PSoC4/I2C_Slave_I2C_BOOT.c **** 
 145              		.loc 1 82 0
 146              		@ sp needed
 147 0006 08BD     		pop	{r3, pc}
 148              		.cfi_endproc
 149              	.LFE1:
 150              		.size	I2C_Slave_I2CCyBtldrCommStop, .-I2C_Slave_I2CCyBtldrCommStop
 151              		.section	.text.I2C_Slave_I2CCyBtldrCommReset,"ax",%progbits
 152              		.align	1
 153              		.global	I2C_Slave_I2CCyBtldrCommReset
 154              		.code	16
 155              		.thumb_func
 156              		.type	I2C_Slave_I2CCyBtldrCommReset, %function
 157              	I2C_Slave_I2CCyBtldrCommReset:
 158              	.LFB2:
 102:Generated_Source\PSoC4/I2C_Slave_I2C_BOOT.c ****     /* Make read buffer full */
 159              		.loc 1 102 0
 160              		.cfi_startproc
 104:Generated_Source\PSoC4/I2C_Slave_I2C_BOOT.c **** 
 161              		.loc 1 104 0
 162 0000 0023     		mov	r3, #0
 163 0002 044A     		ldr	r2, .L19
 112:Generated_Source\PSoC4/I2C_Slave_I2C_BOOT.c **** 
 164              		.loc 1 112 0
 165              		@ sp needed
 104:Generated_Source\PSoC4/I2C_Slave_I2C_BOOT.c **** 
 166              		.loc 1 104 0
ARM GAS  C:\Users\TIMCHE~1\AppData\Local\Temp\ccyX0oX2.s 			page 9


 167 0004 1360     		str	r3, [r2]
 107:Generated_Source\PSoC4/I2C_Slave_I2C_BOOT.c ****     I2C_Slave_slWrBufIndex = 0u;
 168              		.loc 1 107 0
 169 0006 044A     		ldr	r2, .L19+4
 170 0008 1360     		str	r3, [r2]
 108:Generated_Source\PSoC4/I2C_Slave_I2C_BOOT.c **** 
 171              		.loc 1 108 0
 172 000a 044A     		ldr	r2, .L19+8
 173 000c 1360     		str	r3, [r2]
 111:Generated_Source\PSoC4/I2C_Slave_I2C_BOOT.c **** }
 174              		.loc 1 111 0
 175 000e 044A     		ldr	r2, .L19+12
 176 0010 1370     		strb	r3, [r2]
 112:Generated_Source\PSoC4/I2C_Slave_I2C_BOOT.c **** 
 177              		.loc 1 112 0
 178 0012 7047     		bx	lr
 179              	.L20:
 180              		.align	2
 181              	.L19:
 182 0014 00000000 		.word	I2C_Slave_slRdBufSize
 183 0018 00000000 		.word	I2C_Slave_slRdBufIndex
 184 001c 00000000 		.word	I2C_Slave_slWrBufIndex
 185 0020 00000000 		.word	I2C_Slave_slStatus
 186              		.cfi_endproc
 187              	.LFE2:
 188              		.size	I2C_Slave_I2CCyBtldrCommReset, .-I2C_Slave_I2CCyBtldrCommReset
 189              		.section	.text.I2C_Slave_I2CCyBtldrCommRead,"ax",%progbits
 190              		.align	1
 191              		.global	I2C_Slave_I2CCyBtldrCommRead
 192              		.code	16
 193              		.thumb_func
 194              		.type	I2C_Slave_I2CCyBtldrCommRead, %function
 195              	I2C_Slave_I2CCyBtldrCommRead:
 196              	.LFB3:
 144:Generated_Source\PSoC4/I2C_Slave_I2C_BOOT.c ****     cystatus status;
 197              		.loc 1 144 0
 198              		.cfi_startproc
 199              	.LVL5:
 200 0000 F8B5     		push	{r3, r4, r5, r6, r7, lr}
 201              		.cfi_def_cfa_offset 24
 202              		.cfi_offset 3, -24
 203              		.cfi_offset 4, -20
 204              		.cfi_offset 5, -16
 205              		.cfi_offset 6, -12
 206              		.cfi_offset 7, -8
 207              		.cfi_offset 14, -4
 144:Generated_Source\PSoC4/I2C_Slave_I2C_BOOT.c ****     cystatus status;
 208              		.loc 1 144 0
 209 0002 051C     		mov	r5, r0
 210 0004 0C1C     		mov	r4, r1
 211 0006 161C     		mov	r6, r2
 148:Generated_Source\PSoC4/I2C_Slave_I2C_BOOT.c **** 
 212              		.loc 1 148 0
 213 0008 0120     		mov	r0, #1
 214              	.LVL6:
 150:Generated_Source\PSoC4/I2C_Slave_I2C_BOOT.c ****     {
 215              		.loc 1 150 0
ARM GAS  C:\Users\TIMCHE~1\AppData\Local\Temp\ccyX0oX2.s 			page 10


 216 000a 002D     		cmp	r5, #0
 217 000c 22D0     		beq	.L22
 150:Generated_Source\PSoC4/I2C_Slave_I2C_BOOT.c ****     {
 218              		.loc 1 150 0 is_stmt 0 discriminator 1
 219 000e 0029     		cmp	r1, #0
 220 0010 20D0     		beq	.L22
 221              	.LVL7:
 153:Generated_Source\PSoC4/I2C_Slave_I2C_BOOT.c **** 
 222              		.loc 1 153 0 is_stmt 1
 223 0012 0A27     		mov	r7, #10
 224 0014 5F43     		mul	r7, r3
 225              	.LVL8:
 226              	.L23:
 227 0016 1020     		mov	r0, #16
 155:Generated_Source\PSoC4/I2C_Slave_I2C_BOOT.c ****         {
 228              		.loc 1 155 0
 229 0018 002F     		cmp	r7, #0
 230 001a 1BD0     		beq	.L22
 158:Generated_Source\PSoC4/I2C_Slave_I2C_BOOT.c ****             {
 231              		.loc 1 158 0
 232 001c 0E49     		ldr	r1, .L30
 233 001e 0B78     		ldrb	r3, [r1]
 234 0020 0342     		tst	r3, r0
 235 0022 12D0     		beq	.L24
 164:Generated_Source\PSoC4/I2C_Slave_I2C_BOOT.c ****                 I2C_Slave_slWrBufIndex = 0u;
 236              		.loc 1 164 0
 237 0024 0020     		mov	r0, #0
 161:Generated_Source\PSoC4/I2C_Slave_I2C_BOOT.c **** 
 238              		.loc 1 161 0
 239 0026 0D4A     		ldr	r2, .L30+4
 240 0028 1368     		ldr	r3, [r2]
 241 002a 9BB2     		uxth	r3, r3
 242 002c 3380     		strh	r3, [r6]
 164:Generated_Source\PSoC4/I2C_Slave_I2C_BOOT.c ****                 I2C_Slave_slWrBufIndex = 0u;
 243              		.loc 1 164 0
 244 002e 0870     		strb	r0, [r1]
 165:Generated_Source\PSoC4/I2C_Slave_I2C_BOOT.c **** 
 245              		.loc 1 165 0
 246 0030 1060     		str	r0, [r2]
 169:Generated_Source\PSoC4/I2C_Slave_I2C_BOOT.c **** 
 247              		.loc 1 169 0
 248 0032 221C     		add	r2, r4, #0
 249 0034 9C42     		cmp	r4, r3
 250 0036 00D9     		bls	.L25
 251 0038 1A1C     		add	r2, r3, #0
 252              	.L25:
 168:Generated_Source\PSoC4/I2C_Slave_I2C_BOOT.c ****                                               I2C_Slave_BYTES_TO_COPY(*count, size));
 253              		.loc 1 168 0
 254 003a 0949     		ldr	r1, .L30+8
 255 003c 92B2     		uxth	r2, r2
 256 003e 281C     		mov	r0, r5
 257 0040 0431     		add	r1, r1, #4
 258 0042 FFF7FEFF 		bl	memcpy
 259              	.LVL9:
 171:Generated_Source\PSoC4/I2C_Slave_I2C_BOOT.c ****                 break;
 260              		.loc 1 171 0
 261 0046 0020     		mov	r0, #0
ARM GAS  C:\Users\TIMCHE~1\AppData\Local\Temp\ccyX0oX2.s 			page 11


 172:Generated_Source\PSoC4/I2C_Slave_I2C_BOOT.c ****             }
 262              		.loc 1 172 0
 263 0048 04E0     		b	.L22
 264              	.LVL10:
 265              	.L24:
 175:Generated_Source\PSoC4/I2C_Slave_I2C_BOOT.c ****             --timeoutMs;
 266              		.loc 1 175 0
 267 004a 0120     		mov	r0, #1
 268 004c FFF7FEFF 		bl	CyDelay
 269              	.LVL11:
 176:Generated_Source\PSoC4/I2C_Slave_I2C_BOOT.c ****         }
 270              		.loc 1 176 0
 271 0050 013F     		sub	r7, r7, #1
 272              	.LVL12:
 273 0052 E0E7     		b	.L23
 274              	.LVL13:
 275              	.L22:
 181:Generated_Source\PSoC4/I2C_Slave_I2C_BOOT.c **** 
 276              		.loc 1 181 0
 277              		@ sp needed
 278              	.LVL14:
 279              	.LVL15:
 280 0054 F8BD     		pop	{r3, r4, r5, r6, r7, pc}
 281              	.L31:
 282 0056 C046     		.align	2
 283              	.L30:
 284 0058 00000000 		.word	I2C_Slave_slStatus
 285 005c 00000000 		.word	I2C_Slave_slWrBufIndex
 286 0060 00000000 		.word	.LANCHOR0
 287              		.cfi_endproc
 288              	.LFE3:
 289              		.size	I2C_Slave_I2CCyBtldrCommRead, .-I2C_Slave_I2CCyBtldrCommRead
 290              		.section	.text.I2C_Slave_I2CCyBtldrCommWrite,"ax",%progbits
 291              		.align	1
 292              		.global	I2C_Slave_I2CCyBtldrCommWrite
 293              		.code	16
 294              		.thumb_func
 295              		.type	I2C_Slave_I2CCyBtldrCommWrite, %function
 296              	I2C_Slave_I2CCyBtldrCommWrite:
 297              	.LFB4:
 212:Generated_Source\PSoC4/I2C_Slave_I2C_BOOT.c ****     cystatus status;
 298              		.loc 1 212 0
 299              		.cfi_startproc
 300              	.LVL16:
 301 0000 38B5     		push	{r3, r4, r5, lr}
 302              		.cfi_def_cfa_offset 16
 303              		.cfi_offset 3, -16
 304              		.cfi_offset 4, -12
 305              		.cfi_offset 5, -8
 306              		.cfi_offset 14, -4
 212:Generated_Source\PSoC4/I2C_Slave_I2C_BOOT.c ****     cystatus status;
 307              		.loc 1 212 0
 308 0002 031C     		mov	r3, r0
 309              	.LVL17:
 310 0004 0C1C     		mov	r4, r1
 215:Generated_Source\PSoC4/I2C_Slave_I2C_BOOT.c **** 
 311              		.loc 1 215 0
ARM GAS  C:\Users\TIMCHE~1\AppData\Local\Temp\ccyX0oX2.s 			page 12


 312 0006 0120     		mov	r0, #1
 313              	.LVL18:
 217:Generated_Source\PSoC4/I2C_Slave_I2C_BOOT.c ****     {
 314              		.loc 1 217 0
 315 0008 002B     		cmp	r3, #0
 316 000a 0BD0     		beq	.L33
 217:Generated_Source\PSoC4/I2C_Slave_I2C_BOOT.c ****     {
 317              		.loc 1 217 0 is_stmt 0 discriminator 1
 318 000c 0029     		cmp	r1, #0
 319 000e 09D0     		beq	.L33
 221:Generated_Source\PSoC4/I2C_Slave_I2C_BOOT.c **** 
 320              		.loc 1 221 0 is_stmt 1
 321 0010 054D     		ldr	r5, .L37
 220:Generated_Source\PSoC4/I2C_Slave_I2C_BOOT.c ****         (void) memcpy((void *) I2C_Slave_slReadBuf, (const void *) pData, (uint32) size);
 322              		.loc 1 220 0
 323 0012 1180     		strh	r1, [r2]
 221:Generated_Source\PSoC4/I2C_Slave_I2C_BOOT.c **** 
 324              		.loc 1 221 0
 325 0014 281C     		mov	r0, r5
 326 0016 191C     		mov	r1, r3
 327              	.LVL19:
 328 0018 4430     		add	r0, r0, #68
 329 001a 221C     		mov	r2, r4
 330              	.LVL20:
 331 001c FFF7FEFF 		bl	memcpy
 332              	.LVL21:
 231:Generated_Source\PSoC4/I2C_Slave_I2C_BOOT.c ****     }
 333              		.loc 1 231 0
 334 0020 0020     		mov	r0, #0
 224:Generated_Source\PSoC4/I2C_Slave_I2C_BOOT.c **** 
 335              		.loc 1 224 0
 336 0022 2C60     		str	r4, [r5]
 337              	.LVL22:
 338              	.L33:
 235:Generated_Source\PSoC4/I2C_Slave_I2C_BOOT.c **** 
 339              		.loc 1 235 0
 340              		@ sp needed
 341 0024 38BD     		pop	{r3, r4, r5, pc}
 342              	.L38:
 343 0026 C046     		.align	2
 344              	.L37:
 345 0028 00000000 		.word	.LANCHOR0
 346              		.cfi_endproc
 347              	.LFE4:
 348              		.size	I2C_Slave_I2CCyBtldrCommWrite, .-I2C_Slave_I2CCyBtldrCommWrite
 349              		.bss
 350              		.align	2
 351              		.set	.LANCHOR0,. + 0
 352              		.type	I2C_Slave_applyBuffer, %object
 353              		.size	I2C_Slave_applyBuffer, 4
 354              	I2C_Slave_applyBuffer:
 355 0000 00000000 		.space	4
 356              		.type	I2C_Slave_slWriteBuf, %object
 357              		.size	I2C_Slave_slWriteBuf, 64
 358              	I2C_Slave_slWriteBuf:
 359 0004 00000000 		.space	64
 359      00000000 
ARM GAS  C:\Users\TIMCHE~1\AppData\Local\Temp\ccyX0oX2.s 			page 13


 359      00000000 
 359      00000000 
 359      00000000 
 360              		.type	I2C_Slave_slReadBuf, %object
 361              		.size	I2C_Slave_slReadBuf, 64
 362              	I2C_Slave_slReadBuf:
 363 0044 00000000 		.space	64
 363      00000000 
 363      00000000 
 363      00000000 
 363      00000000 
 364              		.text
 365              	.Letext0:
 366              		.file 2 "Generated_Source\\PSoC4/cytypes.h"
 367              		.file 3 "Generated_Source\\PSoC4\\I2C_Slave_I2C_PVT.h"
 368              		.file 4 "Generated_Source\\PSoC4\\I2C_Slave_I2C.h"
 369              		.file 5 "Generated_Source\\PSoC4\\I2C_Slave.h"
 370              		.file 6 "Generated_Source\\PSoC4/CyLib.h"